ccopy_reg
_reconstructor
p1
(cpraw.models.reddit.submission
Submission
p2
c__builtin__
object
p3
NtRp4
(dp5
S'domain'
p6
Vnature.com
p7
sS'approved_at_utc'
p8
NsS'_comments_by_id'
p9
(dp10
sS'_info_params'
p11
(dp12
sS'banned_by'
p13
NsS'comment_sort'
p14
S'best'
p15
sS'media_embed'
p16
(dp17
sS'thumbnail_width'
p18
I140
sS'subreddit'
p19
g1
(cpraw.models.reddit.subreddit
Subreddit
p20
g3
NtRp21
(dp22
S'_wiki'
p23
NsS'display_name'
p24
Vscience
p25
sS'_stylesheet'
p26
NsS'_fetched'
p27
I00
sg11
(dp28
sS'_contributor'
p29
NsS'_banned'
p30
NsS'_muted'
p31
NsS'_quarantine'
p32
NsS'_modmail'
p33
NsS'_flair'
p34
NsS'_reddit'
p35
g1
(cpraw.reddit
Reddit
p36
g3
NtRp37
(dp38
S'_core'
p39
g1
(cprawcore.sessions
Session
p40
g3
NtRp41
(dp42
S'_authorizer'
p43
g1
(cprawcore.auth
ScriptAuthorizer
p44
g3
NtRp45
(dp46
S'scopes'
p47
c__builtin__
set
p48
((lp49
V*
atRp50
sS'_username'
p51
VJS_Research
p52
sS'access_token'
p53
VoR7ueivAi-yeTmPh7RRrUoU-sm8
p54
sS'_authenticator'
p55
g1
(cprawcore.auth
TrustedAuthenticator
p56
g3
NtRp57
(dp58
S'client_secret'
p59
VBgciYaBpyH8ef21jXMyJjn_DARE
p60
sS'redirect_uri'
p61
g1
(cpraw.config
_NotSet
p62
g3
NtRp63
sS'client_id'
p64
VwU1FwN1ugWt7eQ
p65
sS'_requestor'
p66
g1
(cprawcore.requestor
Requestor
p67
g3
NtRp68
(dp69
S'_http'
p70
g1
(crequests.sessions
Session
p71
g3
NtRp72
(dp73
S'cookies'
p74
g1
(crequests.cookies
RequestsCookieJar
p75
g3
NtRp76
(dp77
S'_now'
p78
I1510895610
sS'_policy'
p79
(icookielib
DefaultCookiePolicy
p80
(dp81
S'strict_rfc2965_unverifiable'
p82
I01
sS'strict_ns_domain'
p83
I0
sS'_allowed_domains'
p84
NsS'rfc2109_as_netscape'
p85
NsS'rfc2965'
p86
I00
sS'strict_domain'
p87
I00
sg78
I1510895610
sS'strict_ns_set_path'
p88
I00
sS'strict_ns_unverifiable'
p89
I00
sS'strict_ns_set_initial_dollar'
p90
I00
sS'hide_cookie2'
p91
I00
sS'_blocked_domains'
p92
(tsS'netscape'
p93
I01
sbsS'_cookies'
p94
(dp95
S'.reddit.com'
p96
(dp97
S'/'
(dp98
S'loid'
p99
(icookielib
Cookie
p100
(dp101
S'comment'
p102
Nsg6
S'.reddit.com'
p103
sS'name'
p104
g99
sS'domain_initial_dot'
p105
I00
sS'expires'
p106
I1573967423
sS'value'
p107
S'00000000000e7dsf19.2.1505716153623.Z0FBQUFBQmFEbTlBU1EwbzUyZ293WTJBdDJaamk2V2s2dzRJQmlEV3MxUTQxN212M2ZKZjlhN0xrRnVlSUZoODZzUHZqeEdpdzZ1aFAyT0ZVdUQtRm85dzNpcDNfeG0wbi1iZGs3OWF6WXg4RzNqejI0SV9lUllITXBkUGF4LU14ejUzMWxtLTBHT2Q'
p108
sS'domain_specified'
p109
I01
sS'_rest'
p110
(dp111
sS'version'
p112
I0
sS'port_specified'
p113
I00
sS'rfc2109'
p114
I00
sS'discard'
p115
I00
sS'path_specified'
p116
I01
sS'path'
p117
S'/'
sS'port'
p118
NsS'comment_url'
p119
NsS'secure'
p120
I01
sbsS'session_tracker'
p121
(icookielib
Cookie
p122
(dp123
g102
Nsg6
S'.reddit.com'
p124
sg104
S'session_tracker'
p125
sg105
I00
sg106
I1510902809
sg107
S'crQiBtrEVfCCgtFogt.0.1510895610205.Z0FBQUFBQmFEbV82eHgzMEcwQ0hsRTIwSDVVRTJYcUJCVHJVbkh2a0V2ZnlkWS04a2ZnVkExdW5JQmtxdHN2Z005LXZ1RzZQVGNlSGVPU1JQNmwyMkdxdG9LWGlwNVdKRlQxT0JmTlBxUzludEQtblBxeWViNWNUeEZMSzAxWkVXT1E4TkY3bDl4dDU'
p126
sg109
I01
sg110
(dp127
sg112
I0
sg113
I00
sg114
I00
sg115
I00
sg116
I01
sg117
S'/'
sg118
Nsg119
Nsg120
I01
sbsS'edgebucket'
p128
(icookielib
Cookie
p129
(dp130
g102
Nsg6
S'.reddit.com'
p131
sg104
g128
sg105
I00
sg106
I1573967422
sg107
S'wR7VzApWCkJPkoMBgW'
p132
sg109
I01
sg110
(dp133
sg112
I0
sg113
I00
sg114
I00
sg115
I00
sg116
I01
sg117
S'/'
sg118
Nsg119
Nsg120
I01
sbssssbsS'stream'
p134
I00
sS'hooks'
p135
(dp136
S'response'
p137
(lp138
ssS'auth'
p139
NsS'trust_env'
p140
I01
sS'headers'
p141
g1
(crequests.structures
CaseInsensitiveDict
p142
g3
NtRp143
(dp144
S'_store'
p145
curllib3.packages.ordered_dict
OrderedDict
p146
((lp147
(lp148
S'connection'
p149
a(S'Connection'
p150
S'keep-alive'
p151
tp152
aa(lp153
S'accept-encoding'
p154
a(S'Accept-Encoding'
p155
S'gzip, deflate'
tp156
aa(lp157
S'accept'
p158
a(S'Accept'
p159
S'*/*'
p160
tp161
aa(lp162
S'user-agent'
p163
a(S'User-Agent'
p164
S'News Article Downloader /u/JS_Research PRAW/5.2.0 prawcore/0.12.0'
tp165
aatRp166
sbsS'cert'
p167
NsS'params'
p168
(dp169
sS'prefetch'
p170
NsS'verify'
p171
I01
sS'proxies'
p172
(dp173
sS'adapters'
p174
g146
((lp175
(lp176
S'https://'
p177
ag1
(crequests.adapters
HTTPAdapter
p178
g3
NtRp179
(dp180
S'_pool_block'
p181
I00
sS'_pool_maxsize'
p182
I10
sS'max_retries'
p183
g1
(curllib3.util.retry
Retry
p184
g3
NtRp185
(dp186
S'status'
p187
NsS'redirect'
p188
NsS'read'
p189
I00
sS'backoff_factor'
p190
I0
sS'respect_retry_after_header'
p191
I01
sS'history'
p192
(tsS'raise_on_status'
p193
I01
sS'connect'
p194
NsS'status_forcelist'
p195
g48
((ltRp196
sS'total'
p197
I0
sS'raise_on_redirect'
p198
I01
sS'method_whitelist'
p199
c__builtin__
frozenset
p200
((lp201
S'HEAD'
p202
aS'TRACE'
p203
aS'GET'
p204
aS'PUT'
p205
aS'OPTIONS'
p206
aS'DELETE'
p207
atRp208
sbsS'config'
p209
(dp210
sS'_pool_connections'
p211
I10
sbaa(lp212
S'http://'
p213
ag1
(g178
g3
NtRp214
(dp215
g181
I00
sg182
I10
sg183
g1
(g184
g3
NtRp216
(dp217
g187
Nsg188
Nsg189
I00
sg190
I0
sg191
I01
sg192
(tsg193
I01
sg194
Nsg195
g48
((ltRp218
sg197
I0
sg198
I01
sg199
g208
sbsg209
(dp219
sg211
I10
sbaatRp220
sS'max_redirects'
p221
I30
sbsS'reddit_url'
p222
S'https://www.reddit.com'
p223
sS'oauth_url'
p224
S'https://oauth.reddit.com'
p225
sbsbsS'_password'
p226
VXPlstazuMC0CaX1Njhf0ny5u^nMD5t*P73O
p227
sS'_expiration_timestamp'
p228
F1510899012.1773059
sS'refresh_token'
p229
NsbsS'_rate_limiter'
p230
g1
(cprawcore.rate_limit
RateLimiter
p231
g3
NtRp232
(dp233
S'used'
p234
I114
sS'remaining'
p235
F486
sS'next_request_timestamp'
p236
F1510895611.0569813
sS'reset_timestamp'
p237
F1510896000.2545121
sbsbsS'_objector'
p238
g1
(cpraw.objector
Objector
p239
g3
NtRp240
(dp241
g35
g37
sS'parsers'
p242
(dp243
S'LiveUpdate'
p244
cpraw.models.reddit.live
LiveUpdate
p245
sS'ModmailConversation'
p246
cpraw.models.reddit.modmail
ModmailConversation
p247
sS'ModmailMessage'
p248
cpraw.models.reddit.modmail
ModmailMessage
p249
sS't4'
p250
cpraw.models.reddit.message
Message
p251
sS't5'
p252
g20
sS't2'
p253
cpraw.models.reddit.redditor
Redditor
p254
sS't3'
p255
g2
sS't1'
p256
cpraw.models.reddit.comment
Comment
p257
sS'UserList'
p258
cpraw.models.list.redditor
RedditorList
p259
sS'stylesheet'
p260
cpraw.models.stylesheet
Stylesheet
p261
sS'LabeledMulti'
p262
cpraw.models.reddit.multi
Multireddit
p263
sS'Listing'
p264
cpraw.models.listing.listing
Listing
p265
sS'modaction'
p266
cpraw.models.modaction
ModAction
p267
sS'LiveUpdateEvent'
p268
cpraw.models.reddit.live
LiveThread
p269
sS'ModmailAction'
p270
cpraw.models.reddit.modmail
ModmailAction
p271
sS'more'
p272
cpraw.models.reddit.more
MoreComments
p273
ssbsS'subreddits'
p274
g1
(cpraw.models.subreddits
Subreddits
p275
g3
NtRp276
(dp277
g35
g37
sbsg139
g1
(cpraw.models.auth
Auth
p278
g3
NtRp279
(dp280
g35
g37
sbsg19
g1
(cpraw.models.helpers
SubredditHelper
p281
g3
NtRp282
(dp283
g35
g37
sbsS'front'
p284
g1
(cpraw.models.front
Front
p285
g3
NtRp286
(dp287
g35
g37
sS'_comments'
p288
NsS'_path'
p289
S'/'
sbsS'live'
p290
g1
(cpraw.models.helpers
LiveHelper
p291
g3
NtRp292
(dp293
g35
g37
sbsS'inbox'
p294
g1
(cpraw.models.inbox
Inbox
p295
g3
NtRp296
(dp297
g35
g37
sbsS'multireddit'
p298
g1
(cpraw.models.helpers
MultiredditHelper
p299
g3
NtRp300
(dp301
g35
g37
sbsS'_unique_counter'
p302
I0
sg209
g1
(cpraw.config
Config
p303
g3
NtRp304
(dp305
S'username'
p306
g52
sg222
g223
sS'_settings'
p307
(dp308
g306
g52
sg59
g60
sS'password'
p309
g227
sS'user_agent'
p310
VNews Article Downloader /u/JS_Research
p311
sg64
g65
ssS'check_for_updates'
p312
I01
sS'custom'
p313
(dp314
sg61
g63
sg310
g311
sg64
g65
sS'_short_url'
p315
S'https://redd.it'
p316
sg59
g60
sg224
g225
sg309
g227
sS'kinds'
p317
(dp318
g102
g256
sS'message'
p319
g250
sS'redditor'
p320
g253
sS'submission'
p321
g255
sg19
g252
ssg229
g63
sbsS'_read_only_core'
p322
g1
(g40
g3
NtRp323
(dp324
g43
g1
(cprawcore.auth
ReadOnlyAuthorizer
p325
g3
NtRp326
(dp327
g53
Nsg47
Nsg228
Nsg229
Nsg55
g57
sbsg230
g1
(g231
g3
NtRp328
(dp329
g234
Nsg235
Nsg236
Nsg237
NsbsbsS'_authorized_core'
p330
g41
sS'user'
p331
g1
(cpraw.models.user
User
p332
g3
NtRp333
(dp334
g35
g37
sS'_me'
p335
g1
(g254
g3
NtRp336
(dp337
S'is_employee'
p338
I00
sS'has_visited_new_profile'
p339
I00
sS'pref_no_profanity'
p340
I01
sg11
(dp341
sS'is_suspended'
p342
I00
sS'pref_geopopular'
p343
V
sS'_listing_use_sort'
p344
I01
sg19
NsS'is_sponsor'
p345
I00
sS'gold_expiration'
p346
NsS'id'
p347
Ve7dsf19
p348
sS'suspension_expiration_utc'
p349
NsS'verified'
p350
I00
sg27
I00
sS'new_modmail_exists'
p351
NsS'features'
p352
(dp353
Vsearch_public_traffic
p354
(dp355
Vowner
p356
Vsearch
p357
sVvariant
p358
Vnew_search_11
p359
sVexperiment_id
p360
I212
ssVdo_not_track
p361
I01
sVgeopopular_au_holdout
p362
(dp363
Vowner
p364
Vrelevance
p365
sVvariant
p366
Vcontrol_2
p367
sVexperiment_id
p368
I206
ssVshow_amp_link
p369
I01
sVlive_happening_now
p370
I01
sVadserver_reporting
p371
I01
sVgeopopular
p372
I01
sVchat_rollout
p373
I01
sVads_auto_refund
p374
I01
sVlisting_service_rampup
p375
I01
sVmobile_web_targeting
p376
I01
sVdefault_srs_holdout
p377
(dp378
Vowner
p379
Vrelevance
p380
sVvariant
p381
Vtutorial
p382
sVexperiment_id
p383
I171
ssVadzerk_do_not_track
p384
I01
sVusers_listing
p385
I01
sVshow_user_sr_name
p386
I01
sVwhitelisted_pms
p387
I01
sVpersonalization_prefs
p388
I01
sVupgrade_cookies
p389
I01
sVnew_overview
p390
I01
sVnew_report_flow
p391
I01
sVblock_user_by_report
p392
I01
sVadblock_test
p393
I01
sVlegacy_search_pref
p394
I01
sVorangereds_as_emails
p395
I01
sVmweb_xpromo_modal_listing_click_daily_dismissible_ios
p396
I01
sVexpando_events
p397
I01
sVeu_cookie_policy
p398
I01
sVprogrammatic_ads
p399
I01
sVforce_https
p400
I01
sVinbox_push
p401
I01
sVpost_to_profile_beta
p402
I01
sVcrossposting_ga
p403
I01
sVoutbound_clicktracking
p404
I01
sVnew_loggedin_cache_policy
p405
I01
sVshow_secret_santa
p406
I01
sVhttps_redirect
p407
I01
sVsearch_dark_traffic
p408
I01
sVmweb_xpromo_interstitial_comments_ios
p409
I01
sVpause_ads
p410
I01
sVgive_hsts_grants
p411
I01
sVshow_recommended_link
p412
I01
sVmobile_native_banner
p413
I01
sVmweb_xpromo_interstitial_comments_android
p414
I01
sVads_auction
p415
I01
sVgeopopular_se_holdout
p416
(dp417
Vowner
p418
Vrelevance
p419
sVvariant
p420
Vcontrol_2
p421
sVexperiment_id
p422
I224
ssVscreenview_events
p423
I01
sVsubreddit_recommendations_carousel_holdout
p424
(dp425
Vowner
p426
Vrelevance
p427
sVvariant
p428
Vcontrol_2
p429
sVexperiment_id
p430
I239
ssVnew_report_dialog
p431
I01
sVmoat_tracking
p432
I01
sVsubreddit_rules
p433
I01
sVadzerk_reporting_2
p434
I01
sVactivity_service_write
p435
I01
sVads_auto_extend
p436
I01
sVinterest_targeting
p437
I01
sVpost_embed
p438
I01
sVmweb_xpromo_ad_loading_android
p439
(dp440
Vowner
p441
Vchannels
p442
sVvariant
p443
Vcontrol_1
p444
sVexperiment_id
p445
I187
ssVscroll_events
p446
I01
sVmweb_xpromo_modal_listing_click_daily_dismissible_android
p447
I01
sVcrossposting_recent
p448
I01
sVactivity_service_read
p449
I01
ssS'over_18'
p450
I00
sS'is_gold'
p451
I00
sS'is_mod'
p452
I00
sS'has_verified_email'
p453
I00
sS'in_redesign_beta'
p454
I00
sS'has_mod_mail'
p455
I00
sS'oauth_client_id'
p456
VwU1FwN1ugWt7eQ
p457
sS'hide_from_robots'
p458
I00
sS'link_karma'
p459
I1
sg35
g37
sS'inbox_count'
p460
I1
sS'pref_top_karma_subreddits'
p461
NsS'has_mail'
p462
I01
sS'pref_show_snoovatar'
p463
I00
sg104
VJS_Research
p464
sS'created'
p465
F1505744953
sS'_stream'
p466
NsS'gold_creddits'
p467
I0
sS'created_utc'
p468
F1505716153
sS'in_beta'
p469
I00
sS'comment_karma'
p470
I0
sS'has_subscribed'
p471
I00
sg289
S'user/JS_Research/'
p472
sbsbsbsS'_filters'
p473
Nsg466
Nsg288
NsS'_mod'
p474
NsS'_moderator'
p475
Nsg289
S'r/science/'
p476
sbsS'selftext_html'
p477
NsS'selftext'
p478
V
sS'likes'
p479
NsS'suggested_sort'
p480
Vconfidence
p481
sS'user_reports'
p482
(lp483
sS'secure_media'
p484
NsS'is_reddit_media_domain'
p485
I00
sS'link_flair_text'
p486
VAnimal Science
p487
sg347
V76irho
p488
sS'banned_at_utc'
p489
NsS'view_count'
p490
NsS'archived'
p491
I00
sS'clicked'
p492
I00
sS'report_reasons'
p493
NsS'title'
p494
VRabies is a viral disease that is famous for its ability to alter the behavior of infected hosts by rendering them aggressive. Its underlying biological mechanisms are uncertain, but scientists are now beginning to explain how the virus works at a molecular level.
p495
sS'num_crossposts'
p496
I0
sS'saved'
p497
I00
sS'mod_reports'
p498
(lp499
sS'can_mod_post'
p500
I00
sS'is_crosspostable'
p501
I00
sS'pinned'
p502
I00
sS'comment_limit'
p503
I2048
sS'score'
p504
I385
sS'approved_by'
p505
Nsg450
I00
sS'hidden'
p506
I00
sS'preview'
p507
(dp508
Vimages
p509
(lp510
(dp511
Vsource
p512
(dp513
Vurl
p514
Vhttps://i.redditmedia.com/iqfXh424gtFSmoQu2xR-S1XOm4koEbp7beEri-ineWs.jpg?s=ea8b65269d63d095e5c07112f167d250
p515
sVwidth
p516
I482
sVheight
p517
I685
ssVresolutions
p518
(lp519
(dp520
Vurl
p521
Vhttps://i.redditmedia.com/iqfXh424gtFSmoQu2xR-S1XOm4koEbp7beEri-ineWs.jpg?fit=crop&crop=faces%2Centropy&arh=2&w=108&s=fb44443ad9af998d23eb9c9c715edf06
p522
sVwidth
p523
I108
sVheight
p524
I153
sa(dp525
Vurl
p526
Vhttps://i.redditmedia.com/iqfXh424gtFSmoQu2xR-S1XOm4koEbp7beEri-ineWs.jpg?fit=crop&crop=faces%2Centropy&arh=2&w=216&s=69bd4cc22b1979a15be2d4d16c897f4b
p527
sVwidth
p528
I216
sVheight
p529
I306
sa(dp530
Vurl
p531
Vhttps://i.redditmedia.com/iqfXh424gtFSmoQu2xR-S1XOm4koEbp7beEri-ineWs.jpg?fit=crop&crop=faces%2Centropy&arh=2&w=320&s=e185238388550426ef3c3da155b5807d
p532
sVwidth
p533
I320
sVheight
p534
I454
sasVvariants
p535
(dp536
sVid
p537
VtnS4V0urTVzes9cmIaZJ0Yy-LmvJDaY0eaMncY4v91E
p538
sasVenabled
p539
I00
ssS'thumbnail'
p540
Vhttps://b.thumbs.redditmedia.com/duJDYQS8o95LdIsaUhLS2o15EENzfOHp6SN-EsblVkU.jpg
p541
sS'subreddit_id'
p542
Vt5_mouw
p543
sS'whitelist_status'
p544
Vall_ads
p545
sS'edited'
p546
I00
sS'link_flair_css_class'
p547
Vanimalsci
p548
sS'author_flair_css_class'
p549
NsS'contest_mode'
p550
I00
sS'gilded'
p551
I0
sS'downs'
p552
I0
sS'brand_safe'
p553
I01
sS'secure_media_embed'
p554
(dp555
sS'removal_reason'
p556
NsS'post_hint'
p557
Vlink
p558
sS'stickied'
p559
I00
sg35
g37
sS'can_gild'
p560
I01
sS'thumbnail_height'
p561
I140
sS'parent_whitelist_status'
p562
Vall_ads
p563
sg104
Vt3_76irho
p564
sg474
NsS'spoiler'
p565
I00
sS'permalink'
p566
V/r/science/comments/76irho/rabies_is_a_viral_disease_that_is_famous_for_its/
p567
sS'subreddit_type'
p568
Vpublic
p569
sS'locked'
p570
I00
sS'hide_score'
p571
I00
sg465
F1508100458
sS'url'
p572
Vhttps://www.nature.com/articles/s41598-017-12726-4
p573
sS'author_flair_text'
p574
NsS'quarantine'
p575
I00
sS'author'
p576
g1
(g254
g3
NtRp577
(dp578
g104
VWagamaga
p579
sg27
I00
sg11
(dp580
sg344
I01
sg466
Nsg35
g37
sg289
S'user/Wagamaga/'
p581
sbsg468
F1508071658
sS'subreddit_name_prefixed'
p582
Vr/science
p583
sS'ups'
p584
I385
sg34
NsS'media'
p585
NsS'article_text'
p586
VBinding of neurotoxin-like peptide to homologues of the extracellular domain of nAChR\u000a\u000aWe used surface plasmon resonance (SPR) techniques to identify the interactions between neurotoxin-like peptides of the RGP and an acetylcholine binding protein derived from Lymnaea stagnalis (L-AChBP). The L-AChBP is a soluble pentameric homolog of the extracellular binding domain of nAChRs and has been used extensively in the study and modelling of these receptors11,12,13,14. Six peptides were used in the SPR assays differing only in the amino acid present at a position corresponding to residue 183 of the mature rabies glycoprotein. This residue has previously been identified as being positively selected in natural rabies isolates15,16 although this positive selection was not found in other studies17. In addition, we determined the polymorphism of residues in over 2600 glycoprotein sequences using the Virus Pathogen Resource (VIPR). Residue 183 is the most polymorphic site in the ectodomain of the rabies glycoprotein while other residues of the neurotoxin-like region are highly conserved among natural rabies viruses (Fig. 1a). A phenotype for mutations at this residue is not known. Rabies virus-derived peptides bound to L-AChBP with dissociation constants (K D ) in the micromolar (M) range, similar to those observed in previous radioligand binding studies using muscle nAChRs6. We detected significant differences in binding to the L-AChBP with K D values ranging from 3.5 to 73 M for peptides that differed only at the amino acid corresponding to residue 183 (Fig. 1b). This suggests that this residue is involved in interactions with nicotinic receptors.\u000a\u000aFigure 1 Neurotoxin-like peptides of the rabies virus glycoprotein contain polymorphic and highly conserved residues (a) and differ in binding to homologue of extracellular part of nAChR (b). (a) Polymorphism of RGP residues: 2649 mature RGP sequences downloaded from Genbank were submitted to the VIPR website and the polymorphism was determined and plotted over the length of the mature RGP. Residue 183 is the most polymorphic of all residues within the ectodomain (residues 1440 in the mature RGP) of the protein. The inset represents the neurotoxin-like peptide domain used in this study. (b) Comparison of K D values for rabies derived peptides binding to L-AChBP determined by Surface Plasmon Resonance. L-AChBP was immobilized on Biacore CM5 sensor chips and perfused with test peptides at a flow rate of 45 ul/min at 25 degrees centigrade. Average K D values for at least three independent experiments and standard deviations are shown. Bars indicated significant differences between K D values of two peptides as determined by Students T-test. Full size image\u000a\u000aFunctional effect of neurotoxin-like peptide on 42 nAChR\u000a\u000aNext, we performed functional assays on the predominant nAChR subtype in the CNS (42) to determine whether rabies neurotoxin-like region altered the activity of this critical receptor. Assays used two-electrode voltage clamp on nAChRs expressed in Xenopus oocytes. To limit use of vertebrate animals and to focus on the most relevant peptides, we selected the peptides with the two most common amino acids at residue 183 (alanine, and proline), which also had significantly different binding characteristics to ACHBP. A peptide with an alanine at position 183 (RV-183A) inhibited acetylcholine evoked responses on 42 nAChR with an extrapolated IC 50 = 4652620 M at the 95% CI (Fig. 2a). A peptide with proline at this position (RV-183P) showed slightly higher potency on 42 receptors with an extrapolated IC 50 of 185314 M (95% CI) (Fig. 2b). The differences between the relative binding to ACHBP and inhibition of 42 nAChR between the two peptides are likely due to differences in structure between L-AChBP and the 42 subtype of nAChR. In contrast to these two peptides, another variant (RV-R196D, with aspartic acid at position 196) produced no inhibition but instead potentiated responses to acetylcholine (extrapolated EC 50 = 149605 M at the 95% CI). However, that peptide did not activate receptors on its own and so is not likely acting as an agonist. Amino acid 196 is an arginine or lysine in naturally occurring RGPs, which corresponds to the quaternary amino group in the acetylcholine molecule and therefore RV-R196D is expected to have reduced activity on the nAChR6. While IC 50 concentrations in the mid micromolar range are higher than those typical of inhibitory ligands at nicotinic receptors in vitro, the limited volume of the synaptic cleft18 results in similar concentrations in vivo based on the estimated 1200 glycoprotein molecules present on a single virus particle19. Indeed, the severity of disease in mice is related to the level of glycoprotein expressed20, indicating that only high glycoprotein concentrations can cause the changes seen. In addition, the relatively small molecular flexibility of the intact glycoprotein as compared to that of the small peptide will likely increase the affinity of the intact protein to the nAChR. To test this, we also assessed the effects of full length RGP-ectodomain on 42 receptors. The ectodomain inhibited the receptors at a concentration of 840 nM (Fig. 2d,e). After the application of ACh in the presence of buffer, 42 control ACh responses recovered to a level not significantly different (p = 0.168 in a paired t-test, n = 5) from the ACh control responses prior to the buffer application. ACh peak currents were 11.5  1.6 A and 10.9  1.1 A prior to and after the buffer application, respectively. However, ACh control responses after the application of the rabies protein (Fig. 2e) were significantly reduced (p = 0.029 in a paired t-test, n = 6) compared to ACh controls obtained prior to the protein application. ACh peak currents were 9.4  3.1 A and 5.7  1.6 A prior to and after the protein application, respectively. These results indicate that the neurotoxin-like region, in the context of the full-length protein, has activity at even lower concentrations. Glutamate receptors were not inhibited by the ectodomain at 100 nM while this concentration still significantly inhibited 42 receptors compared to buffer treated receptors (data not shown).\u000a\u000aFigure 2 Neurotoxin-like domain of rabies virus inhibits nicotinic receptors. Functional effects of rabies glycoprotein neurotoxin-like peptides on 42 nAChRs (ac). Peptides were identical in sequence with the exception of the amino acid present at position 183 (a,b) or 196 (c). Plots shown in (a,b) show inhibition of acetylcholine-induced responses following pre-exposure to peptides containing either a alanine (a) or proline (b) at position 183. Plot (c) shows the effect of a peptide containing an aspartate at position 196 (RV-R196D). The effects of full length ectodomain is shown in panels (d,e). Panel (d) shows the response of oocytes expressing 42 nAChRs to co-applications of 30 M acetylcholine 30 seconds after pre-application of buffer (orange) or RGP ectodomain (blue) at 840 nM concentration. Panel (e) shows the recovery of responses to 30 M acetylcholine 4 minutes after exposure to RGP ectodomain. Full size image\u000a\u000aBehaviour modifications by neurotoxin-like peptide\u000a\u000aAltered neurotransmitter receptor function could change behaviour in infected hosts. We used the neurotoxin-like peptides instead of full-length ectodomain as the ectodomain could lead to other interactions within the animal that could counteract or alter the nAChR mediated effect. To test the ability of rabies neurotoxin-like peptide to alter nAChR mediated behaviour in an established model organism in vivo we injected Caenorhabditis elegans with neurotoxin-like RPG peptides or peptides with a scrambled sequence and measured pharyngeal pumping. Pharyngeal pumping behaviour in C. elegans is triggered by ACh binding to the nAChR EAT-221. Pharyngeal pumping was absent in six out of seven worms injected with rabies neurotoxin-like peptides (RV-183A). The remaining worm pumped intermittently leading to significantly reduced average pumping frequency (Fig. 3a).\u000a\u000aFigure 3 Rabies neurotoxin-like peptide effects on behaviour. (a) Rabies neurotoxin-like peptide inhibits the frequency of nAChR-meditated pharyngeal pumping in C. elegans. C. elegans were injected with peptide and pharyngeal pumping was measured, p < 0.001 by student-T test. (b) Rabies neurotoxin-like peptides alter the behaviour of mice. Mice injected with the peptide were observed and the number of cage transects were determined relative to control injected mice, the horizontal line at 1 represents control injected animals. *Indicate significance at p < 0.1 (*), p < 0.05 (**) or p < 0.01 (***) using two-way ANOVA test. A representative video of injected mice can be seen in supplemental movie. Full size image\u000a\u000aTo test if the RGP neurotoxin-like peptides have effects on behaviour in mammals we injected neurotoxin-like peptide into the cerebrospinal fluid of adult mice to reach an approximate final concentration of 250 micromolar. Mice, with rabies virus-derived peptides (RV-183A or RV-183P) injected into the lateral ventricle, showed increased locomotor activity in an novel-environment behaviour test, when compared to mice receiving control peptide (identical amino acid composition but with a scrambled sequence) or saline (Fig. 3 and supplemental material). Hyperactivity is one clinical sign of rabies22. The peptide RV-R196D that did not inhibit 42 nAChR signalling also did not alter mouse behaviour in this assay, showing that behavioural influences of these peptides are related to specific interactions with the nAChR.
p587
sS'num_comments'
p588
I34
sS'is_self'
p589
I00
sS'visited'
p590
I00
sS'num_reports'
p591
NsS'is_video'
p592
I00
sS'distinguished'
p593
Nsg27
I00
sb.