ccopy_reg
_reconstructor
p1
(cpraw.models.reddit.submission
Submission
p2
c__builtin__
object
p3
NtRp4
(dp5
S'domain'
p6
Vwashingtonpost.com
p7
sS'approved_at_utc'
p8
NsS'_comments_by_id'
p9
(dp10
sS'_info_params'
p11
(dp12
sS'banned_by'
p13
NsS'comment_sort'
p14
S'best'
p15
sS'media_embed'
p16
(dp17
sS'thumbnail_width'
p18
I140
sS'subreddit'
p19
g1
(cpraw.models.reddit.subreddit
Subreddit
p20
g3
NtRp21
(dp22
S'_wiki'
p23
NsS'display_name'
p24
Vscience
p25
sS'_stylesheet'
p26
NsS'_fetched'
p27
I00
sg11
(dp28
sS'_contributor'
p29
NsS'_banned'
p30
NsS'_muted'
p31
NsS'_quarantine'
p32
NsS'_modmail'
p33
NsS'_flair'
p34
NsS'_reddit'
p35
g1
(cpraw.reddit
Reddit
p36
g3
NtRp37
(dp38
S'_core'
p39
g1
(cprawcore.sessions
Session
p40
g3
NtRp41
(dp42
S'_authorizer'
p43
g1
(cprawcore.auth
ScriptAuthorizer
p44
g3
NtRp45
(dp46
S'scopes'
p47
c__builtin__
set
p48
((lp49
V*
atRp50
sS'_username'
p51
VJS_Research
p52
sS'access_token'
p53
VoR7ueivAi-yeTmPh7RRrUoU-sm8
p54
sS'_authenticator'
p55
g1
(cprawcore.auth
TrustedAuthenticator
p56
g3
NtRp57
(dp58
S'client_secret'
p59
VBgciYaBpyH8ef21jXMyJjn_DARE
p60
sS'redirect_uri'
p61
g1
(cpraw.config
_NotSet
p62
g3
NtRp63
sS'client_id'
p64
VwU1FwN1ugWt7eQ
p65
sS'_requestor'
p66
g1
(cprawcore.requestor
Requestor
p67
g3
NtRp68
(dp69
S'_http'
p70
g1
(crequests.sessions
Session
p71
g3
NtRp72
(dp73
S'cookies'
p74
g1
(crequests.cookies
RequestsCookieJar
p75
g3
NtRp76
(dp77
S'_now'
p78
I1510895610
sS'_policy'
p79
(icookielib
DefaultCookiePolicy
p80
(dp81
S'strict_rfc2965_unverifiable'
p82
I01
sS'strict_ns_domain'
p83
I0
sS'_allowed_domains'
p84
NsS'rfc2109_as_netscape'
p85
NsS'rfc2965'
p86
I00
sS'strict_domain'
p87
I00
sg78
I1510895610
sS'strict_ns_set_path'
p88
I00
sS'strict_ns_unverifiable'
p89
I00
sS'strict_ns_set_initial_dollar'
p90
I00
sS'hide_cookie2'
p91
I00
sS'_blocked_domains'
p92
(tsS'netscape'
p93
I01
sbsS'_cookies'
p94
(dp95
S'.reddit.com'
p96
(dp97
S'/'
(dp98
S'loid'
p99
(icookielib
Cookie
p100
(dp101
S'comment'
p102
Nsg6
S'.reddit.com'
p103
sS'name'
p104
g99
sS'domain_initial_dot'
p105
I00
sS'expires'
p106
I1573967423
sS'value'
p107
S'00000000000e7dsf19.2.1505716153623.Z0FBQUFBQmFEbTlBU1EwbzUyZ293WTJBdDJaamk2V2s2dzRJQmlEV3MxUTQxN212M2ZKZjlhN0xrRnVlSUZoODZzUHZqeEdpdzZ1aFAyT0ZVdUQtRm85dzNpcDNfeG0wbi1iZGs3OWF6WXg4RzNqejI0SV9lUllITXBkUGF4LU14ejUzMWxtLTBHT2Q'
p108
sS'domain_specified'
p109
I01
sS'_rest'
p110
(dp111
sS'version'
p112
I0
sS'port_specified'
p113
I00
sS'rfc2109'
p114
I00
sS'discard'
p115
I00
sS'path_specified'
p116
I01
sS'path'
p117
S'/'
sS'port'
p118
NsS'comment_url'
p119
NsS'secure'
p120
I01
sbsS'session_tracker'
p121
(icookielib
Cookie
p122
(dp123
g102
Nsg6
S'.reddit.com'
p124
sg104
S'session_tracker'
p125
sg105
I00
sg106
I1510902809
sg107
S'crQiBtrEVfCCgtFogt.0.1510895610205.Z0FBQUFBQmFEbV82eHgzMEcwQ0hsRTIwSDVVRTJYcUJCVHJVbkh2a0V2ZnlkWS04a2ZnVkExdW5JQmtxdHN2Z005LXZ1RzZQVGNlSGVPU1JQNmwyMkdxdG9LWGlwNVdKRlQxT0JmTlBxUzludEQtblBxeWViNWNUeEZMSzAxWkVXT1E4TkY3bDl4dDU'
p126
sg109
I01
sg110
(dp127
sg112
I0
sg113
I00
sg114
I00
sg115
I00
sg116
I01
sg117
S'/'
sg118
Nsg119
Nsg120
I01
sbsS'edgebucket'
p128
(icookielib
Cookie
p129
(dp130
g102
Nsg6
S'.reddit.com'
p131
sg104
g128
sg105
I00
sg106
I1573967422
sg107
S'wR7VzApWCkJPkoMBgW'
p132
sg109
I01
sg110
(dp133
sg112
I0
sg113
I00
sg114
I00
sg115
I00
sg116
I01
sg117
S'/'
sg118
Nsg119
Nsg120
I01
sbssssbsS'stream'
p134
I00
sS'hooks'
p135
(dp136
S'response'
p137
(lp138
ssS'auth'
p139
NsS'trust_env'
p140
I01
sS'headers'
p141
g1
(crequests.structures
CaseInsensitiveDict
p142
g3
NtRp143
(dp144
S'_store'
p145
curllib3.packages.ordered_dict
OrderedDict
p146
((lp147
(lp148
S'connection'
p149
a(S'Connection'
p150
S'keep-alive'
p151
tp152
aa(lp153
S'accept-encoding'
p154
a(S'Accept-Encoding'
p155
S'gzip, deflate'
tp156
aa(lp157
S'accept'
p158
a(S'Accept'
p159
S'*/*'
p160
tp161
aa(lp162
S'user-agent'
p163
a(S'User-Agent'
p164
S'News Article Downloader /u/JS_Research PRAW/5.2.0 prawcore/0.12.0'
tp165
aatRp166
sbsS'cert'
p167
NsS'params'
p168
(dp169
sS'prefetch'
p170
NsS'verify'
p171
I01
sS'proxies'
p172
(dp173
sS'adapters'
p174
g146
((lp175
(lp176
S'https://'
p177
ag1
(crequests.adapters
HTTPAdapter
p178
g3
NtRp179
(dp180
S'_pool_block'
p181
I00
sS'_pool_maxsize'
p182
I10
sS'max_retries'
p183
g1
(curllib3.util.retry
Retry
p184
g3
NtRp185
(dp186
S'status'
p187
NsS'redirect'
p188
NsS'read'
p189
I00
sS'backoff_factor'
p190
I0
sS'respect_retry_after_header'
p191
I01
sS'history'
p192
(tsS'raise_on_status'
p193
I01
sS'connect'
p194
NsS'status_forcelist'
p195
g48
((ltRp196
sS'total'
p197
I0
sS'raise_on_redirect'
p198
I01
sS'method_whitelist'
p199
c__builtin__
frozenset
p200
((lp201
S'HEAD'
p202
aS'TRACE'
p203
aS'GET'
p204
aS'PUT'
p205
aS'OPTIONS'
p206
aS'DELETE'
p207
atRp208
sbsS'config'
p209
(dp210
sS'_pool_connections'
p211
I10
sbaa(lp212
S'http://'
p213
ag1
(g178
g3
NtRp214
(dp215
g181
I00
sg182
I10
sg183
g1
(g184
g3
NtRp216
(dp217
g187
Nsg188
Nsg189
I00
sg190
I0
sg191
I01
sg192
(tsg193
I01
sg194
Nsg195
g48
((ltRp218
sg197
I0
sg198
I01
sg199
g208
sbsg209
(dp219
sg211
I10
sbaatRp220
sS'max_redirects'
p221
I30
sbsS'reddit_url'
p222
S'https://www.reddit.com'
p223
sS'oauth_url'
p224
S'https://oauth.reddit.com'
p225
sbsbsS'_password'
p226
VXPlstazuMC0CaX1Njhf0ny5u^nMD5t*P73O
p227
sS'_expiration_timestamp'
p228
F1510899012.1773059
sS'refresh_token'
p229
NsbsS'_rate_limiter'
p230
g1
(cprawcore.rate_limit
RateLimiter
p231
g3
NtRp232
(dp233
S'used'
p234
I114
sS'remaining'
p235
F486
sS'next_request_timestamp'
p236
F1510895611.0569813
sS'reset_timestamp'
p237
F1510896000.2545121
sbsbsS'_objector'
p238
g1
(cpraw.objector
Objector
p239
g3
NtRp240
(dp241
g35
g37
sS'parsers'
p242
(dp243
S'LiveUpdate'
p244
cpraw.models.reddit.live
LiveUpdate
p245
sS'ModmailConversation'
p246
cpraw.models.reddit.modmail
ModmailConversation
p247
sS'ModmailMessage'
p248
cpraw.models.reddit.modmail
ModmailMessage
p249
sS't4'
p250
cpraw.models.reddit.message
Message
p251
sS't5'
p252
g20
sS't2'
p253
cpraw.models.reddit.redditor
Redditor
p254
sS't3'
p255
g2
sS't1'
p256
cpraw.models.reddit.comment
Comment
p257
sS'UserList'
p258
cpraw.models.list.redditor
RedditorList
p259
sS'stylesheet'
p260
cpraw.models.stylesheet
Stylesheet
p261
sS'LabeledMulti'
p262
cpraw.models.reddit.multi
Multireddit
p263
sS'Listing'
p264
cpraw.models.listing.listing
Listing
p265
sS'modaction'
p266
cpraw.models.modaction
ModAction
p267
sS'LiveUpdateEvent'
p268
cpraw.models.reddit.live
LiveThread
p269
sS'ModmailAction'
p270
cpraw.models.reddit.modmail
ModmailAction
p271
sS'more'
p272
cpraw.models.reddit.more
MoreComments
p273
ssbsS'subreddits'
p274
g1
(cpraw.models.subreddits
Subreddits
p275
g3
NtRp276
(dp277
g35
g37
sbsg139
g1
(cpraw.models.auth
Auth
p278
g3
NtRp279
(dp280
g35
g37
sbsg19
g1
(cpraw.models.helpers
SubredditHelper
p281
g3
NtRp282
(dp283
g35
g37
sbsS'front'
p284
g1
(cpraw.models.front
Front
p285
g3
NtRp286
(dp287
g35
g37
sS'_comments'
p288
NsS'_path'
p289
S'/'
sbsS'live'
p290
g1
(cpraw.models.helpers
LiveHelper
p291
g3
NtRp292
(dp293
g35
g37
sbsS'inbox'
p294
g1
(cpraw.models.inbox
Inbox
p295
g3
NtRp296
(dp297
g35
g37
sbsS'multireddit'
p298
g1
(cpraw.models.helpers
MultiredditHelper
p299
g3
NtRp300
(dp301
g35
g37
sbsS'_unique_counter'
p302
I0
sg209
g1
(cpraw.config
Config
p303
g3
NtRp304
(dp305
S'username'
p306
g52
sg222
g223
sS'_settings'
p307
(dp308
g306
g52
sg59
g60
sS'password'
p309
g227
sS'user_agent'
p310
VNews Article Downloader /u/JS_Research
p311
sg64
g65
ssS'check_for_updates'
p312
I01
sS'custom'
p313
(dp314
sg61
g63
sg310
g311
sg64
g65
sS'_short_url'
p315
S'https://redd.it'
p316
sg59
g60
sg224
g225
sg309
g227
sS'kinds'
p317
(dp318
g102
g256
sS'message'
p319
g250
sS'redditor'
p320
g253
sS'submission'
p321
g255
sg19
g252
ssg229
g63
sbsS'_read_only_core'
p322
g1
(g40
g3
NtRp323
(dp324
g43
g1
(cprawcore.auth
ReadOnlyAuthorizer
p325
g3
NtRp326
(dp327
g53
Nsg47
Nsg228
Nsg229
Nsg55
g57
sbsg230
g1
(g231
g3
NtRp328
(dp329
g234
Nsg235
Nsg236
Nsg237
NsbsbsS'_authorized_core'
p330
g41
sS'user'
p331
g1
(cpraw.models.user
User
p332
g3
NtRp333
(dp334
g35
g37
sS'_me'
p335
g1
(g254
g3
NtRp336
(dp337
S'is_employee'
p338
I00
sS'has_visited_new_profile'
p339
I00
sS'pref_no_profanity'
p340
I01
sg11
(dp341
sS'is_suspended'
p342
I00
sS'pref_geopopular'
p343
V
sS'_listing_use_sort'
p344
I01
sg19
NsS'is_sponsor'
p345
I00
sS'gold_expiration'
p346
NsS'id'
p347
Ve7dsf19
p348
sS'suspension_expiration_utc'
p349
NsS'verified'
p350
I00
sg27
I00
sS'new_modmail_exists'
p351
NsS'features'
p352
(dp353
Vsearch_public_traffic
p354
(dp355
Vowner
p356
Vsearch
p357
sVvariant
p358
Vnew_search_11
p359
sVexperiment_id
p360
I212
ssVdo_not_track
p361
I01
sVgeopopular_au_holdout
p362
(dp363
Vowner
p364
Vrelevance
p365
sVvariant
p366
Vcontrol_2
p367
sVexperiment_id
p368
I206
ssVshow_amp_link
p369
I01
sVlive_happening_now
p370
I01
sVadserver_reporting
p371
I01
sVgeopopular
p372
I01
sVchat_rollout
p373
I01
sVads_auto_refund
p374
I01
sVlisting_service_rampup
p375
I01
sVmobile_web_targeting
p376
I01
sVdefault_srs_holdout
p377
(dp378
Vowner
p379
Vrelevance
p380
sVvariant
p381
Vtutorial
p382
sVexperiment_id
p383
I171
ssVadzerk_do_not_track
p384
I01
sVusers_listing
p385
I01
sVshow_user_sr_name
p386
I01
sVwhitelisted_pms
p387
I01
sVpersonalization_prefs
p388
I01
sVupgrade_cookies
p389
I01
sVnew_overview
p390
I01
sVnew_report_flow
p391
I01
sVblock_user_by_report
p392
I01
sVadblock_test
p393
I01
sVlegacy_search_pref
p394
I01
sVorangereds_as_emails
p395
I01
sVmweb_xpromo_modal_listing_click_daily_dismissible_ios
p396
I01
sVexpando_events
p397
I01
sVeu_cookie_policy
p398
I01
sVprogrammatic_ads
p399
I01
sVforce_https
p400
I01
sVinbox_push
p401
I01
sVpost_to_profile_beta
p402
I01
sVcrossposting_ga
p403
I01
sVoutbound_clicktracking
p404
I01
sVnew_loggedin_cache_policy
p405
I01
sVshow_secret_santa
p406
I01
sVhttps_redirect
p407
I01
sVsearch_dark_traffic
p408
I01
sVmweb_xpromo_interstitial_comments_ios
p409
I01
sVpause_ads
p410
I01
sVgive_hsts_grants
p411
I01
sVshow_recommended_link
p412
I01
sVmobile_native_banner
p413
I01
sVmweb_xpromo_interstitial_comments_android
p414
I01
sVads_auction
p415
I01
sVgeopopular_se_holdout
p416
(dp417
Vowner
p418
Vrelevance
p419
sVvariant
p420
Vcontrol_2
p421
sVexperiment_id
p422
I224
ssVscreenview_events
p423
I01
sVsubreddit_recommendations_carousel_holdout
p424
(dp425
Vowner
p426
Vrelevance
p427
sVvariant
p428
Vcontrol_2
p429
sVexperiment_id
p430
I239
ssVnew_report_dialog
p431
I01
sVmoat_tracking
p432
I01
sVsubreddit_rules
p433
I01
sVadzerk_reporting_2
p434
I01
sVactivity_service_write
p435
I01
sVads_auto_extend
p436
I01
sVinterest_targeting
p437
I01
sVpost_embed
p438
I01
sVmweb_xpromo_ad_loading_android
p439
(dp440
Vowner
p441
Vchannels
p442
sVvariant
p443
Vcontrol_1
p444
sVexperiment_id
p445
I187
ssVscroll_events
p446
I01
sVmweb_xpromo_modal_listing_click_daily_dismissible_android
p447
I01
sVcrossposting_recent
p448
I01
sVactivity_service_read
p449
I01
ssS'over_18'
p450
I00
sS'is_gold'
p451
I00
sS'is_mod'
p452
I00
sS'has_verified_email'
p453
I00
sS'in_redesign_beta'
p454
I00
sS'has_mod_mail'
p455
I00
sS'oauth_client_id'
p456
VwU1FwN1ugWt7eQ
p457
sS'hide_from_robots'
p458
I00
sS'link_karma'
p459
I1
sg35
g37
sS'inbox_count'
p460
I1
sS'pref_top_karma_subreddits'
p461
NsS'has_mail'
p462
I01
sS'pref_show_snoovatar'
p463
I00
sg104
VJS_Research
p464
sS'created'
p465
F1505744953
sS'_stream'
p466
NsS'gold_creddits'
p467
I0
sS'created_utc'
p468
F1505716153
sS'in_beta'
p469
I00
sS'comment_karma'
p470
I0
sS'has_subscribed'
p471
I00
sg289
S'user/JS_Research/'
p472
sbsbsbsS'_filters'
p473
Nsg466
Nsg288
NsS'_mod'
p474
NsS'_moderator'
p475
Nsg289
S'r/science/'
p476
sbsS'selftext_html'
p477
NsS'selftext'
p478
V
sS'likes'
p479
NsS'suggested_sort'
p480
Vconfidence
p481
sS'user_reports'
p482
(lp483
sS'secure_media'
p484
NsS'is_reddit_media_domain'
p485
I00
sS'link_flair_text'
p486
VBiology
p487
sg347
V6suit9
p488
sS'banned_at_utc'
p489
NsS'view_count'
p490
NsS'archived'
p491
I00
sS'clicked'
p492
I00
sS'report_reasons'
p493
NsS'title'
p494
VScientists create the first mutant ants using CRISPR to disable the ant's olfactory system
p495
sS'num_crossposts'
p496
I0
sS'saved'
p497
I00
sS'mod_reports'
p498
(lp499
sS'can_mod_post'
p500
I00
sS'is_crosspostable'
p501
I00
sS'pinned'
p502
I00
sS'comment_limit'
p503
I2048
sS'score'
p504
I616
sS'approved_by'
p505
Nsg450
I00
sS'hidden'
p506
I00
sS'preview'
p507
(dp508
Vimages
p509
(lp510
(dp511
Vsource
p512
(dp513
Vurl
p514
Vhttps://i.redditmedia.com/w2FggMF_NEYUzVZ8xRdCNlkqVb7gfyzAIQNYgVcy86c.jpg?s=33d12c697a89b1877e2567a61a88485c
p515
sVwidth
p516
I1484
sVheight
p517
I989
ssVresolutions
p518
(lp519
(dp520
Vurl
p521
Vhttps://i.redditmedia.com/w2FggMF_NEYUzVZ8xRdCNlkqVb7gfyzAIQNYgVcy86c.jpg?fit=crop&crop=faces%2Centropy&arh=2&w=108&s=b3865e537095a45526c6190363089c47
p522
sVwidth
p523
I108
sVheight
p524
I71
sa(dp525
Vurl
p526
Vhttps://i.redditmedia.com/w2FggMF_NEYUzVZ8xRdCNlkqVb7gfyzAIQNYgVcy86c.jpg?fit=crop&crop=faces%2Centropy&arh=2&w=216&s=d3175e5a2f089e0bcacd5b327758d505
p527
sVwidth
p528
I216
sVheight
p529
I143
sa(dp530
Vurl
p531
Vhttps://i.redditmedia.com/w2FggMF_NEYUzVZ8xRdCNlkqVb7gfyzAIQNYgVcy86c.jpg?fit=crop&crop=faces%2Centropy&arh=2&w=320&s=55a778d6952b346c04c1d0c94f45131e
p532
sVwidth
p533
I320
sVheight
p534
I213
sa(dp535
Vurl
p536
Vhttps://i.redditmedia.com/w2FggMF_NEYUzVZ8xRdCNlkqVb7gfyzAIQNYgVcy86c.jpg?fit=crop&crop=faces%2Centropy&arh=2&w=640&s=82148407a732ffa7577ed74f23c32190
p537
sVwidth
p538
I640
sVheight
p539
I426
sa(dp540
Vurl
p541
Vhttps://i.redditmedia.com/w2FggMF_NEYUzVZ8xRdCNlkqVb7gfyzAIQNYgVcy86c.jpg?fit=crop&crop=faces%2Centropy&arh=2&w=960&s=991f39637bd3b953060a2c0edcc2c39f
p542
sVwidth
p543
I960
sVheight
p544
I639
sa(dp545
Vurl
p546
Vhttps://i.redditmedia.com/w2FggMF_NEYUzVZ8xRdCNlkqVb7gfyzAIQNYgVcy86c.jpg?fit=crop&crop=faces%2Centropy&arh=2&w=1080&s=cabb2baf10eb5a85bdee03265acc8c78
p547
sVwidth
p548
I1080
sVheight
p549
I719
sasVvariants
p550
(dp551
sVid
p552
VRypFBW88DZEsTftEjAEYisIE2URBe3Oaz70UNQ1i2cc
p553
sasVenabled
p554
I00
ssS'thumbnail'
p555
Vhttps://b.thumbs.redditmedia.com/EYxwzbQBsIPa3CaoG9qRlcYpOgVNa4H5aqtN3_GtI3I.jpg
p556
sS'subreddit_id'
p557
Vt5_mouw
p558
sS'whitelist_status'
p559
Vall_ads
p560
sS'edited'
p561
I00
sS'link_flair_css_class'
p562
Vbio
p563
sS'author_flair_css_class'
p564
Vmed   reward9
p565
sS'contest_mode'
p566
I00
sS'gilded'
p567
I0
sS'downs'
p568
I0
sS'brand_safe'
p569
I01
sS'secure_media_embed'
p570
(dp571
sS'removal_reason'
p572
NsS'post_hint'
p573
Vlink
p574
sS'stickied'
p575
I00
sg35
g37
sS'can_gild'
p576
I01
sS'thumbnail_height'
p577
I93
sS'parent_whitelist_status'
p578
Vall_ads
p579
sg104
Vt3_6suit9
p580
sg474
NsS'spoiler'
p581
I00
sS'permalink'
p582
V/r/science/comments/6suit9/scientists_create_the_first_mutant_ants_using/
p583
sS'subreddit_type'
p584
Vpublic
p585
sS'locked'
p586
I00
sS'hide_score'
p587
I00
sg465
F1502411923
sS'url'
p588
Vhttps://www.washingtonpost.com/news/speaking-of-science/wp/2017/08/10/scientists-create-the-first-mutant-ants/
p589
sS'author_flair_text'
p590
VGrad Student | Biomedical Engineering | Regenerative Medicine
p591
sS'quarantine'
p592
I00
sS'author'
p593
g1
(g254
g3
NtRp594
(dp595
g104
Vkerovon
p596
sg27
I00
sg11
(dp597
sg344
I01
sg466
Nsg35
g37
sg289
S'user/kerovon/'
p598
sbsg468
F1502383123
sS'subreddit_name_prefixed'
p599
Vr/science
p600
sS'ups'
p601
I616
sg34
NsS'media'
p602
NsS'article_text'
p603
VTwo independent research teams at New York University and Rockefeller University say they have genetically modified two different species of ants. Here's some of what they found. (Monica Akhtar/The Washington Post)\u000a\u000aDespite what you might've seen in 1950s monster movies, it's difficult to raise mutant ants. For years biologists have altered the genetics of organisms as varied as mice and rice. Mutant fruit flies are a laboratory staple. But ants' complex life cycle hampered efforts to grow genetically engineered ants  until now.\u000a\u000aOn Thursday, two independent research teams described their work deleting ant genes. Two papers chronicling the first mutant ants appeared in the journal Cell, along with a third study that altered ant behavior using an insect brain hormone.\u000a\u000aClaude Desplan, a New York University biologist and an author of one of the studies, said that, as far as he could tell, these ants are the first mutant in any social insect.\u000a\u000aAnts have complex social roles, even though members of a colony are genetically very similar. Females may be egg-laying queens or sterile workers, colony cleaners or fierce soldiers. Males, who are little more than sperm-delivery systems with wings, appear only seasonally. To ensure the mutant genes carry on, you need to go through the queen, Desplan said. It is not so easy to make queens.\u000a\u000aThere's a lot of interesting biologic questions that you can study with ants that you cant study with fruit flies or even mice, said Rockefeller University biologist Daniel Kronauer, an author of the other mutant-ant study. If you throw a thousand fruit flies in a bucket of dirt, maybe they'll fight or copulate, he said. But that's about it. Do the same with ants and they'll set to work digging, caring for broods and foraging.\u000a\u000aWhat's more, the insects are prime targets for studies of epigenetics, the external factors that toggle genes on and off. Ants are amazing because with the same genome you can be a queen, or a worker, or another class of worker, or a soldier, Desplan said.\u000a\u000aDesplan's research group chose to study a species of jumping ant found in India, Harpegnathos saltator, because all of these ants are potentially fertile. Before laying eggs, though, the workers have to become pseudo-queens. (The scientific term for a pseudo-queen is a gamergate  no relation to the anti-feminist video game hullabaloo circa 2014.) If a jumping-ant colony loses its queen, the workers go through a gantlet of ritualized antenna-flailing duels. The victor transforms into a pseudo-queen.\u000a\u000aKronauer and his colleagues, led by Rockefeller University graduate student Waring Trible, studied clonal raider ants, Ooceraea biroi. Unlike most ants, the raider ants reproduce asexually, through parthenogenesis. Popularly called virgin birth, it's a phenomenon seen in some snakes, lizards and sharks. The offspring end up as clones of the females. For both species, the desired result of genetic alteration was the same: creating mother ants that gave birth to future generations of mutants.\u000a\u000aBoth research groups mutated their ants in the same way. Using the CRISPR-Cas9 technique, with bacterial molecules acting like scissors to snip out genes, the scientists knocked out a crucial component of the ant's odor receptors.\u000a\u000aPheromones, the odors by which ants communicate, are their social medium. Though there are hundreds of olfactory genes in ants, deleting one particular gene  called orco, for odorant receptor co-receptor  effectively renders almost the entire ant olfactory system useless.\u000a\u000aRemoving every individual odor gene would be essentially impossible, Kronauer said. But the power of orco to take out the whole family of olfactory genes makes it an obvious candidate for manipulation. (It's why both research groups independently decided to focus on deleting the gene.) The insects lost about 90 percent of their olfaction, Desplan said.\u000a\u000aThe behavior of the mutants changed dramatically. The Indian jumping ants wandered away from the colony and wouldn't forage. If Desplan isolated a mutant jumping ant, the ant still became a fertile gamergate. But these pseudo-queens laid very few eggs and were poor mothers. And if the mutants belonged to a colony that lost its queen, they didn't partake in the antennae duels. Instead, they only twitched their antennae when alone, as if shadowboxing.\u000a\u000aThe clonal raider ants that couldn't sense pheromones acted strangely, too. Normally, these ants detest the smell of Sharpie markers. But the mutants marched right over lines drawn in Sharpie.\u000a\u000aLike the jumping ants, the Ooceraea biroi mutants became antisocial. Suddenly these ants arent really social any more. They wander off, they dont join the colony, Kronauer said. They just walk around. Nor did they follow the pheromone trails their brethren left.\u000a\u000aStranger things happened, too. One particularly odd loner crept into a colony, stole off with an egg and began to groom it with her antennae. All of a sudden she startled. There was no cause for alarm, but the flood of warning pheromones she released sent the rest of the non-mutant colony into a tizzy, Kronauer said.\u000a\u000aRockefeller University biologist Daniel Kronauer and his colleagues created the first mutant ants using CRISPR technology. Here's how they did it and what they found. (Kate Bredbenner, SimpleBiologist)\u000a\u000aNow that scientists know they can alter ant behaviors through their genes, Kronauer plans to study the way colonies divide their labor.\u000a\u000aImagine two people living in an apartment. As the dishes pile up, the roommate with a lower threshold for dirty plates begins to wash dishes more often. In the parlance of a biologist observer, that roommate emerges as a dishwashing specialist. The old research methods would be to alter the external cues  the equivalent of removing the dishwashing machine and seeing what happens. Through genetic manipulation, Kronauer plans to directly change an ant's internal thresholds.\u000a\u000aDesplan is interested in the way ants alter their longevity, in addition to sensory perception. Workers live to about seven months old. But workers that become pseudo-queens live for four years. That's like one human twin living to age 85 and the other to age 550. Expanding by a factor of 10 is unheard of, Desplan said.\u000a\u000aWorkers who become pseudo-queens turn back to workers once they're exposed to queen pheromones. These former queens die within months. That means there must be a reversible genetic switch that controls the ant life span.\u000a\u000aOther scientists have taken note of the mutant ant models, Kronauer said, including experts who study honeybees. People are very excited, he said, and they have asked whether his lab could help establish a similar protocol in other species.\u000a\u000aResearch such as this opens the door for new model organisms, in Desplan's view. If the traditional bioscience method is to ask many questions of the same organism  such as mice or fruit flies  then genetic engineering techniques allow biologists to ask very specific questions to an animal that fits their needs.\u000a\u000aIf you want to model communities, look to ants. Even mice dont have very sophisticated behavior, Desplan said.\u000a\u000aSome entomologists became ant experts because they loved ants. For Desplan, his was a more pragmatic affinity. He has worked with insects as varied as fruit flies, wasps and butterflies. And now mutant ants.\u000a\u000aWe became ant people because we needed to, he said, not because we were born ant people. And, if these model mutants catch on the way Desplan and Kronauer predict, expect the ranks of ant people to swell.\u000a\u000aRead more:\u000a\u000aEthicists advise caution in applying CRISPR gene editing to humans\u000a\u000aHow humble fungus-farming ants turned into agricultural titans\u000a\u000aBroad Institute scientist prevails in epic patent fight over CRISPR
p604
sS'num_comments'
p605
I51
sS'is_self'
p606
I00
sS'visited'
p607
I00
sS'num_reports'
p608
NsS'is_video'
p609
I00
sS'distinguished'
p610
Nsg27
I00
sb.