ccopy_reg
_reconstructor
p1
(cpraw.models.reddit.submission
Submission
p2
c__builtin__
object
p3
NtRp4
(dp5
S'domain'
p6
Vadn.com
p7
sS'approved_at_utc'
p8
NsS'_comments_by_id'
p9
(dp10
sS'_info_params'
p11
(dp12
sS'banned_by'
p13
NsS'comment_sort'
p14
S'best'
p15
sS'media_embed'
p16
(dp17
sS'thumbnail_width'
p18
I140
sS'subreddit'
p19
g1
(cpraw.models.reddit.subreddit
Subreddit
p20
g3
NtRp21
(dp22
S'_wiki'
p23
NsS'display_name'
p24
Vscience
p25
sS'_stylesheet'
p26
NsS'_fetched'
p27
I00
sg11
(dp28
sS'_contributor'
p29
NsS'_banned'
p30
NsS'_muted'
p31
NsS'_quarantine'
p32
NsS'_modmail'
p33
NsS'_flair'
p34
NsS'_reddit'
p35
g1
(cpraw.reddit
Reddit
p36
g3
NtRp37
(dp38
S'_core'
p39
g1
(cprawcore.sessions
Session
p40
g3
NtRp41
(dp42
S'_authorizer'
p43
g1
(cprawcore.auth
ScriptAuthorizer
p44
g3
NtRp45
(dp46
S'scopes'
p47
c__builtin__
set
p48
((lp49
V*
atRp50
sS'_username'
p51
VJS_Research
p52
sS'access_token'
p53
VoR7ueivAi-yeTmPh7RRrUoU-sm8
p54
sS'_authenticator'
p55
g1
(cprawcore.auth
TrustedAuthenticator
p56
g3
NtRp57
(dp58
S'client_secret'
p59
VBgciYaBpyH8ef21jXMyJjn_DARE
p60
sS'redirect_uri'
p61
g1
(cpraw.config
_NotSet
p62
g3
NtRp63
sS'client_id'
p64
VwU1FwN1ugWt7eQ
p65
sS'_requestor'
p66
g1
(cprawcore.requestor
Requestor
p67
g3
NtRp68
(dp69
S'_http'
p70
g1
(crequests.sessions
Session
p71
g3
NtRp72
(dp73
S'cookies'
p74
g1
(crequests.cookies
RequestsCookieJar
p75
g3
NtRp76
(dp77
S'_now'
p78
I1510895610
sS'_policy'
p79
(icookielib
DefaultCookiePolicy
p80
(dp81
S'strict_rfc2965_unverifiable'
p82
I01
sS'strict_ns_domain'
p83
I0
sS'_allowed_domains'
p84
NsS'rfc2109_as_netscape'
p85
NsS'rfc2965'
p86
I00
sS'strict_domain'
p87
I00
sg78
I1510895610
sS'strict_ns_set_path'
p88
I00
sS'strict_ns_unverifiable'
p89
I00
sS'strict_ns_set_initial_dollar'
p90
I00
sS'hide_cookie2'
p91
I00
sS'_blocked_domains'
p92
(tsS'netscape'
p93
I01
sbsS'_cookies'
p94
(dp95
S'.reddit.com'
p96
(dp97
S'/'
(dp98
S'loid'
p99
(icookielib
Cookie
p100
(dp101
S'comment'
p102
Nsg6
S'.reddit.com'
p103
sS'name'
p104
g99
sS'domain_initial_dot'
p105
I00
sS'expires'
p106
I1573967423
sS'value'
p107
S'00000000000e7dsf19.2.1505716153623.Z0FBQUFBQmFEbTlBU1EwbzUyZ293WTJBdDJaamk2V2s2dzRJQmlEV3MxUTQxN212M2ZKZjlhN0xrRnVlSUZoODZzUHZqeEdpdzZ1aFAyT0ZVdUQtRm85dzNpcDNfeG0wbi1iZGs3OWF6WXg4RzNqejI0SV9lUllITXBkUGF4LU14ejUzMWxtLTBHT2Q'
p108
sS'domain_specified'
p109
I01
sS'_rest'
p110
(dp111
sS'version'
p112
I0
sS'port_specified'
p113
I00
sS'rfc2109'
p114
I00
sS'discard'
p115
I00
sS'path_specified'
p116
I01
sS'path'
p117
S'/'
sS'port'
p118
NsS'comment_url'
p119
NsS'secure'
p120
I01
sbsS'session_tracker'
p121
(icookielib
Cookie
p122
(dp123
g102
Nsg6
S'.reddit.com'
p124
sg104
S'session_tracker'
p125
sg105
I00
sg106
I1510902809
sg107
S'crQiBtrEVfCCgtFogt.0.1510895610205.Z0FBQUFBQmFEbV82eHgzMEcwQ0hsRTIwSDVVRTJYcUJCVHJVbkh2a0V2ZnlkWS04a2ZnVkExdW5JQmtxdHN2Z005LXZ1RzZQVGNlSGVPU1JQNmwyMkdxdG9LWGlwNVdKRlQxT0JmTlBxUzludEQtblBxeWViNWNUeEZMSzAxWkVXT1E4TkY3bDl4dDU'
p126
sg109
I01
sg110
(dp127
sg112
I0
sg113
I00
sg114
I00
sg115
I00
sg116
I01
sg117
S'/'
sg118
Nsg119
Nsg120
I01
sbsS'edgebucket'
p128
(icookielib
Cookie
p129
(dp130
g102
Nsg6
S'.reddit.com'
p131
sg104
g128
sg105
I00
sg106
I1573967422
sg107
S'wR7VzApWCkJPkoMBgW'
p132
sg109
I01
sg110
(dp133
sg112
I0
sg113
I00
sg114
I00
sg115
I00
sg116
I01
sg117
S'/'
sg118
Nsg119
Nsg120
I01
sbssssbsS'stream'
p134
I00
sS'hooks'
p135
(dp136
S'response'
p137
(lp138
ssS'auth'
p139
NsS'trust_env'
p140
I01
sS'headers'
p141
g1
(crequests.structures
CaseInsensitiveDict
p142
g3
NtRp143
(dp144
S'_store'
p145
curllib3.packages.ordered_dict
OrderedDict
p146
((lp147
(lp148
S'connection'
p149
a(S'Connection'
p150
S'keep-alive'
p151
tp152
aa(lp153
S'accept-encoding'
p154
a(S'Accept-Encoding'
p155
S'gzip, deflate'
tp156
aa(lp157
S'accept'
p158
a(S'Accept'
p159
S'*/*'
p160
tp161
aa(lp162
S'user-agent'
p163
a(S'User-Agent'
p164
S'News Article Downloader /u/JS_Research PRAW/5.2.0 prawcore/0.12.0'
tp165
aatRp166
sbsS'cert'
p167
NsS'params'
p168
(dp169
sS'prefetch'
p170
NsS'verify'
p171
I01
sS'proxies'
p172
(dp173
sS'adapters'
p174
g146
((lp175
(lp176
S'https://'
p177
ag1
(crequests.adapters
HTTPAdapter
p178
g3
NtRp179
(dp180
S'_pool_block'
p181
I00
sS'_pool_maxsize'
p182
I10
sS'max_retries'
p183
g1
(curllib3.util.retry
Retry
p184
g3
NtRp185
(dp186
S'status'
p187
NsS'redirect'
p188
NsS'read'
p189
I00
sS'backoff_factor'
p190
I0
sS'respect_retry_after_header'
p191
I01
sS'history'
p192
(tsS'raise_on_status'
p193
I01
sS'connect'
p194
NsS'status_forcelist'
p195
g48
((ltRp196
sS'total'
p197
I0
sS'raise_on_redirect'
p198
I01
sS'method_whitelist'
p199
c__builtin__
frozenset
p200
((lp201
S'HEAD'
p202
aS'TRACE'
p203
aS'GET'
p204
aS'PUT'
p205
aS'OPTIONS'
p206
aS'DELETE'
p207
atRp208
sbsS'config'
p209
(dp210
sS'_pool_connections'
p211
I10
sbaa(lp212
S'http://'
p213
ag1
(g178
g3
NtRp214
(dp215
g181
I00
sg182
I10
sg183
g1
(g184
g3
NtRp216
(dp217
g187
Nsg188
Nsg189
I00
sg190
I0
sg191
I01
sg192
(tsg193
I01
sg194
Nsg195
g48
((ltRp218
sg197
I0
sg198
I01
sg199
g208
sbsg209
(dp219
sg211
I10
sbaatRp220
sS'max_redirects'
p221
I30
sbsS'reddit_url'
p222
S'https://www.reddit.com'
p223
sS'oauth_url'
p224
S'https://oauth.reddit.com'
p225
sbsbsS'_password'
p226
VXPlstazuMC0CaX1Njhf0ny5u^nMD5t*P73O
p227
sS'_expiration_timestamp'
p228
F1510899012.1773059
sS'refresh_token'
p229
NsbsS'_rate_limiter'
p230
g1
(cprawcore.rate_limit
RateLimiter
p231
g3
NtRp232
(dp233
S'used'
p234
I114
sS'remaining'
p235
F486
sS'next_request_timestamp'
p236
F1510895611.0569813
sS'reset_timestamp'
p237
F1510896000.2545121
sbsbsS'_objector'
p238
g1
(cpraw.objector
Objector
p239
g3
NtRp240
(dp241
g35
g37
sS'parsers'
p242
(dp243
S'LiveUpdate'
p244
cpraw.models.reddit.live
LiveUpdate
p245
sS'ModmailConversation'
p246
cpraw.models.reddit.modmail
ModmailConversation
p247
sS'ModmailMessage'
p248
cpraw.models.reddit.modmail
ModmailMessage
p249
sS't4'
p250
cpraw.models.reddit.message
Message
p251
sS't5'
p252
g20
sS't2'
p253
cpraw.models.reddit.redditor
Redditor
p254
sS't3'
p255
g2
sS't1'
p256
cpraw.models.reddit.comment
Comment
p257
sS'UserList'
p258
cpraw.models.list.redditor
RedditorList
p259
sS'stylesheet'
p260
cpraw.models.stylesheet
Stylesheet
p261
sS'LabeledMulti'
p262
cpraw.models.reddit.multi
Multireddit
p263
sS'Listing'
p264
cpraw.models.listing.listing
Listing
p265
sS'modaction'
p266
cpraw.models.modaction
ModAction
p267
sS'LiveUpdateEvent'
p268
cpraw.models.reddit.live
LiveThread
p269
sS'ModmailAction'
p270
cpraw.models.reddit.modmail
ModmailAction
p271
sS'more'
p272
cpraw.models.reddit.more
MoreComments
p273
ssbsS'subreddits'
p274
g1
(cpraw.models.subreddits
Subreddits
p275
g3
NtRp276
(dp277
g35
g37
sbsg139
g1
(cpraw.models.auth
Auth
p278
g3
NtRp279
(dp280
g35
g37
sbsg19
g1
(cpraw.models.helpers
SubredditHelper
p281
g3
NtRp282
(dp283
g35
g37
sbsS'front'
p284
g1
(cpraw.models.front
Front
p285
g3
NtRp286
(dp287
g35
g37
sS'_comments'
p288
NsS'_path'
p289
S'/'
sbsS'live'
p290
g1
(cpraw.models.helpers
LiveHelper
p291
g3
NtRp292
(dp293
g35
g37
sbsS'inbox'
p294
g1
(cpraw.models.inbox
Inbox
p295
g3
NtRp296
(dp297
g35
g37
sbsS'multireddit'
p298
g1
(cpraw.models.helpers
MultiredditHelper
p299
g3
NtRp300
(dp301
g35
g37
sbsS'_unique_counter'
p302
I0
sg209
g1
(cpraw.config
Config
p303
g3
NtRp304
(dp305
S'username'
p306
g52
sg222
g223
sS'_settings'
p307
(dp308
g306
g52
sg59
g60
sS'password'
p309
g227
sS'user_agent'
p310
VNews Article Downloader /u/JS_Research
p311
sg64
g65
ssS'check_for_updates'
p312
I01
sS'custom'
p313
(dp314
sg61
g63
sg310
g311
sg64
g65
sS'_short_url'
p315
S'https://redd.it'
p316
sg59
g60
sg224
g225
sg309
g227
sS'kinds'
p317
(dp318
g102
g256
sS'message'
p319
g250
sS'redditor'
p320
g253
sS'submission'
p321
g255
sg19
g252
ssg229
g63
sbsS'_read_only_core'
p322
g1
(g40
g3
NtRp323
(dp324
g43
g1
(cprawcore.auth
ReadOnlyAuthorizer
p325
g3
NtRp326
(dp327
g53
Nsg47
Nsg228
Nsg229
Nsg55
g57
sbsg230
g1
(g231
g3
NtRp328
(dp329
g234
Nsg235
Nsg236
Nsg237
NsbsbsS'_authorized_core'
p330
g41
sS'user'
p331
g1
(cpraw.models.user
User
p332
g3
NtRp333
(dp334
g35
g37
sS'_me'
p335
g1
(g254
g3
NtRp336
(dp337
S'is_employee'
p338
I00
sS'has_visited_new_profile'
p339
I00
sS'pref_no_profanity'
p340
I01
sg11
(dp341
sS'is_suspended'
p342
I00
sS'pref_geopopular'
p343
V
sS'_listing_use_sort'
p344
I01
sg19
NsS'is_sponsor'
p345
I00
sS'gold_expiration'
p346
NsS'id'
p347
Ve7dsf19
p348
sS'suspension_expiration_utc'
p349
NsS'verified'
p350
I00
sg27
I00
sS'new_modmail_exists'
p351
NsS'features'
p352
(dp353
Vsearch_public_traffic
p354
(dp355
Vowner
p356
Vsearch
p357
sVvariant
p358
Vnew_search_11
p359
sVexperiment_id
p360
I212
ssVdo_not_track
p361
I01
sVgeopopular_au_holdout
p362
(dp363
Vowner
p364
Vrelevance
p365
sVvariant
p366
Vcontrol_2
p367
sVexperiment_id
p368
I206
ssVshow_amp_link
p369
I01
sVlive_happening_now
p370
I01
sVadserver_reporting
p371
I01
sVgeopopular
p372
I01
sVchat_rollout
p373
I01
sVads_auto_refund
p374
I01
sVlisting_service_rampup
p375
I01
sVmobile_web_targeting
p376
I01
sVdefault_srs_holdout
p377
(dp378
Vowner
p379
Vrelevance
p380
sVvariant
p381
Vtutorial
p382
sVexperiment_id
p383
I171
ssVadzerk_do_not_track
p384
I01
sVusers_listing
p385
I01
sVshow_user_sr_name
p386
I01
sVwhitelisted_pms
p387
I01
sVpersonalization_prefs
p388
I01
sVupgrade_cookies
p389
I01
sVnew_overview
p390
I01
sVnew_report_flow
p391
I01
sVblock_user_by_report
p392
I01
sVadblock_test
p393
I01
sVlegacy_search_pref
p394
I01
sVorangereds_as_emails
p395
I01
sVmweb_xpromo_modal_listing_click_daily_dismissible_ios
p396
I01
sVexpando_events
p397
I01
sVeu_cookie_policy
p398
I01
sVprogrammatic_ads
p399
I01
sVforce_https
p400
I01
sVinbox_push
p401
I01
sVpost_to_profile_beta
p402
I01
sVcrossposting_ga
p403
I01
sVoutbound_clicktracking
p404
I01
sVnew_loggedin_cache_policy
p405
I01
sVshow_secret_santa
p406
I01
sVhttps_redirect
p407
I01
sVsearch_dark_traffic
p408
I01
sVmweb_xpromo_interstitial_comments_ios
p409
I01
sVpause_ads
p410
I01
sVgive_hsts_grants
p411
I01
sVshow_recommended_link
p412
I01
sVmobile_native_banner
p413
I01
sVmweb_xpromo_interstitial_comments_android
p414
I01
sVads_auction
p415
I01
sVgeopopular_se_holdout
p416
(dp417
Vowner
p418
Vrelevance
p419
sVvariant
p420
Vcontrol_2
p421
sVexperiment_id
p422
I224
ssVscreenview_events
p423
I01
sVsubreddit_recommendations_carousel_holdout
p424
(dp425
Vowner
p426
Vrelevance
p427
sVvariant
p428
Vcontrol_2
p429
sVexperiment_id
p430
I239
ssVnew_report_dialog
p431
I01
sVmoat_tracking
p432
I01
sVsubreddit_rules
p433
I01
sVadzerk_reporting_2
p434
I01
sVactivity_service_write
p435
I01
sVads_auto_extend
p436
I01
sVinterest_targeting
p437
I01
sVpost_embed
p438
I01
sVmweb_xpromo_ad_loading_android
p439
(dp440
Vowner
p441
Vchannels
p442
sVvariant
p443
Vcontrol_1
p444
sVexperiment_id
p445
I187
ssVscroll_events
p446
I01
sVmweb_xpromo_modal_listing_click_daily_dismissible_android
p447
I01
sVcrossposting_recent
p448
I01
sVactivity_service_read
p449
I01
ssS'over_18'
p450
I00
sS'is_gold'
p451
I00
sS'is_mod'
p452
I00
sS'has_verified_email'
p453
I00
sS'in_redesign_beta'
p454
I00
sS'has_mod_mail'
p455
I00
sS'oauth_client_id'
p456
VwU1FwN1ugWt7eQ
p457
sS'hide_from_robots'
p458
I00
sS'link_karma'
p459
I1
sg35
g37
sS'inbox_count'
p460
I1
sS'pref_top_karma_subreddits'
p461
NsS'has_mail'
p462
I01
sS'pref_show_snoovatar'
p463
I00
sg104
VJS_Research
p464
sS'created'
p465
F1505744953
sS'_stream'
p466
NsS'gold_creddits'
p467
I0
sS'created_utc'
p468
F1505716153
sS'in_beta'
p469
I00
sS'comment_karma'
p470
I0
sS'has_subscribed'
p471
I00
sg289
S'user/JS_Research/'
p472
sbsbsbsS'_filters'
p473
Nsg466
Nsg288
NsS'_mod'
p474
NsS'_moderator'
p475
Nsg289
S'r/science/'
p476
sbsS'selftext_html'
p477
NsS'selftext'
p478
V
sS'likes'
p479
NsS'suggested_sort'
p480
Vconfidence
p481
sS'user_reports'
p482
(lp483
sS'secure_media'
p484
NsS'is_reddit_media_domain'
p485
I00
sS'link_flair_text'
p486
VBiology
p487
sg347
V5hd8vb
p488
sS'banned_at_utc'
p489
NsS'view_count'
p490
NsS'archived'
p491
I01
sS'clicked'
p492
I00
sS'report_reasons'
p493
NsS'title'
p494
VResearchers report that four distinct populations of killifish, living in four Superfund sites on the East Coast, have separately and rapidly evolved a genetic adaptation that allows them to survive in severely contaminated waters.
p495
sS'num_crossposts'
p496
I0
sS'saved'
p497
I00
sS'mod_reports'
p498
(lp499
sS'can_mod_post'
p500
I00
sS'is_crosspostable'
p501
I00
sS'pinned'
p502
I00
sS'comment_limit'
p503
I2048
sS'score'
p504
I2012
sS'approved_by'
p505
Nsg450
I00
sS'hidden'
p506
I00
sS'preview'
p507
(dp508
Vimages
p509
(lp510
(dp511
Vsource
p512
(dp513
Vurl
p514
Vhttps://i.redditmedia.com/8cVuCUiHuBljlmEpWeMaLp4PPF-FOvRwCNiBRot4vZA.jpg?s=f9ada1d75fe92796f5b23ef2f18809b5
p515
sVwidth
p516
I1200
sVheight
p517
I753
ssVresolutions
p518
(lp519
(dp520
Vurl
p521
Vhttps://i.redditmedia.com/8cVuCUiHuBljlmEpWeMaLp4PPF-FOvRwCNiBRot4vZA.jpg?fit=crop&crop=faces%2Centropy&arh=2&w=108&s=41da49684bd33bdb1336d28edc4ad350
p522
sVwidth
p523
I108
sVheight
p524
I67
sa(dp525
Vurl
p526
Vhttps://i.redditmedia.com/8cVuCUiHuBljlmEpWeMaLp4PPF-FOvRwCNiBRot4vZA.jpg?fit=crop&crop=faces%2Centropy&arh=2&w=216&s=2840f80af65d4ff1bb118508c93f69cb
p527
sVwidth
p528
I216
sVheight
p529
I135
sa(dp530
Vurl
p531
Vhttps://i.redditmedia.com/8cVuCUiHuBljlmEpWeMaLp4PPF-FOvRwCNiBRot4vZA.jpg?fit=crop&crop=faces%2Centropy&arh=2&w=320&s=4e11712498fdb8eea3df1386e328966b
p532
sVwidth
p533
I320
sVheight
p534
I200
sa(dp535
Vurl
p536
Vhttps://i.redditmedia.com/8cVuCUiHuBljlmEpWeMaLp4PPF-FOvRwCNiBRot4vZA.jpg?fit=crop&crop=faces%2Centropy&arh=2&w=640&s=1687b6e521dcd6d61b6bddf4ca3a4f9d
p537
sVwidth
p538
I640
sVheight
p539
I401
sa(dp540
Vurl
p541
Vhttps://i.redditmedia.com/8cVuCUiHuBljlmEpWeMaLp4PPF-FOvRwCNiBRot4vZA.jpg?fit=crop&crop=faces%2Centropy&arh=2&w=960&s=2d7cb15690a52bfffd40b886976a6282
p542
sVwidth
p543
I960
sVheight
p544
I602
sa(dp545
Vurl
p546
Vhttps://i.redditmedia.com/8cVuCUiHuBljlmEpWeMaLp4PPF-FOvRwCNiBRot4vZA.jpg?fit=crop&crop=faces%2Centropy&arh=2&w=1080&s=5f529c4de25fd2b7b557e0e8c4a3932e
p547
sVwidth
p548
I1080
sVheight
p549
I677
sasVvariants
p550
(dp551
sVid
p552
V4n_NwYcyfqISv_OZ0yr6NWlVmpCkefyCiMChs_g061M
p553
sasVenabled
p554
I00
ssS'thumbnail'
p555
Vhttps://b.thumbs.redditmedia.com/4hceezMrJg4FL2iUm-d9FYT3AaA8F8qnIJN93Ij_nME.jpg
p556
sS'subreddit_id'
p557
Vt5_mouw
p558
sS'whitelist_status'
p559
Vall_ads
p560
sS'edited'
p561
I00
sS'link_flair_css_class'
p562
Vbio
p563
sS'author_flair_css_class'
p564
V  reward1
p565
sS'contest_mode'
p566
I00
sS'gilded'
p567
I0
sS'downs'
p568
I0
sS'brand_safe'
p569
I01
sS'secure_media_embed'
p570
(dp571
sS'removal_reason'
p572
NsS'post_hint'
p573
Vlink
p574
sS'stickied'
p575
I00
sg35
g37
sS'can_gild'
p576
I01
sS'thumbnail_height'
p577
I87
sS'parent_whitelist_status'
p578
Vall_ads
p579
sg104
Vt3_5hd8vb
p580
sg474
NsS'spoiler'
p581
I00
sS'permalink'
p582
V/r/science/comments/5hd8vb/researchers_report_that_four_distinct_populations/
p583
sS'subreddit_type'
p584
Vpublic
p585
sS'locked'
p586
I00
sS'hide_score'
p587
I00
sg465
F1481311115
sS'url'
p588
Vhttps://www.adn.com/nation-world/2016/12/08/some-fish-evolve-to-survive-the-most-poisoned-places-in-america/
p589
sS'author_flair_text'
p590
NsS'quarantine'
p591
I00
sS'author'
p592
g1
(g254
g3
NtRp593
(dp594
g104
Vthe_phet
p595
sg27
I00
sg11
(dp596
sg344
I01
sg466
Nsg35
g37
sg289
S'user/the_phet/'
p597
sbsg468
F1481282315
sS'subreddit_name_prefixed'
p598
Vr/science
p599
sS'ups'
p600
I2012
sg34
NsS'media'
p601
NsS'article_text'
p602
VVirginia's Elizabeth River is a toxic cocktail of industrial pollutants: PCBs, which cause skin ailments and birth defect; PAHs, which have been linked to cancer; dangerous heavy metals like arsenic and lead; smoky-smelling creosote. Formerly the site of a wood treatment facility and a Navy sludge dump, the river is now on the EPA's Superfund list, identified as one of the most hazardous waste spots in America.\u000a\u000aFew creatures would want to live in those waters. But that's exactly what thousands of Atlantic killifish do.\u000a\u000aIn a study published Thursday in the journal Science, researchers report that four distinct populations of killifish, living in four Superfund sites on the East Coast, have separately and rapidly evolved a genetic adaptation that allows them to survive in severely contaminated waters. They likely were able to do so because they were already so abundant, which made it easier for them to evolve.\u000a\u000a[For a few Alaska fish, 1964 earthquake spurred rapid evolution]\u000a\u000aTheir success illustrates a sad fact about evolution and environmental change, said co-author Andrew Whitehead, a biologist at the University of California at Davis: The least vulnerable species are best positioned to survive.\u000a\u000a"Who are going to be the winners and the losers in rapidly changing environments?" he asked. "The winners are the species with more good cards to play."\u000a\u000aShort, squat and tiny killifish, also known as mummichogs or mud minnows, are masters of marshes and coastal estuaries. Killifish swim together in massive shoals  their Narragansett name literally means "going in crowds"  and are some of the most abundant fish in North America. They've also evolved to be extremely resilient, capable of withstanding the dramatic shifts in temperature, salinity and dissolved oxygen that occur in their habitats as tides go in and out.\u000a\u000aBut under ordinary circumstances, they struggle to cope with environmental pollutants: If you dropped an average killifish into toxic waters, it wouldn't last very long.\u000a\u000aThat's why ecologists have puzzled over the populations that persist in the Elizabeth River, as well as in New Bedford harbor in Massachusetts, the waters around Bridgeport, Conn., and New Jersey's Newark Bay  all former industrial sites now on the Superfund list. The fish there are able to withstand levels of pollution 8,000 times higher than the normal lethal limit. Clearly, they've had some adaptation that the rest of their species lacked. What was it?\u000a\u000aTo find out, Whitehead and his colleagues sequenced the genomes of nearly 400 killifish from those four spots and four non-polluted areas nearby. The fish from the Superfund sites shared a set of mutations on a part of the genome related to a signaling pathway called aryl hydrocarbon receptor (AHR). The pathway regulates the immune system and release of the hormone estrogen, and, most importantly, it mediates toxicity. It's what makes killifish sensitive to pollutants. But without AHR, they can swim in toxic waters without getting hurt.\u000a\u000aIt's unusual for animals like killifish  which have life spans of years, not months  to evolve so rapidly, especially in four separate spots. To Whitehead, that suggests the mutation for the AHR deletion already existed in the larger killifish population, lying dormant like a superpower the animals didn't know they had. Once the changing environmental circumstances made the mutation useful for fish in polluted spots, it rapidly spread to the rest of the community. In real time, the animals evolved to adapt to their poisoned habitat.\u000a\u000aBut this is not a happy story. For one thing, scientists don't yet know whether there's a cost to the AHR mutation in killifish.\u000a\u000a"If you disable this pathway, how does that effect estrogen and immune signaling?" Whitehead wondered. "That's the million-dollar question  and the answer isn't clear yet."\u000a\u000aMore significantly, though, most creatures won't be as lucky as the killifish.\u000a\u000aHumans are changing ecosystems in matters of years, while most vertebrate evolution happens over the course of millennia, if not longer. When environmental shifts happen fast, animals can't wait around for the right, helpful mutation to occur, especially if they're animals with long life spans that don't reproduce very rapidly. They have to hope that this mutation already exists in the population, waiting to become useful.\u000a\u000aThe latter scenario is more likely to happen when the population in question is larger and thus contains a larger degree of genetic diversity. The killifish population is one of the biggest.\u000a\u000a"Killifish top the charts in terms of vertebrates," Whitehead said. "That's probably what stacked the deck in their favor."\u000a\u000aThe situation holds a certain "tragic irony," he said. Species that harbor large numbers of organisms and huge amounts of genetic diversity  think bugs and bacteria  are most able to adapt to new and deadly poisons. Unfortunately, those are usually the species that we're trying to tamp down. Meanwhile, populations humans hope to save, because they've been decimated by hunting or habitat loss, are least equipped to evolve.
p603
sS'num_comments'
p604
I56
sS'is_self'
p605
I00
sS'visited'
p606
I00
sS'num_reports'
p607
NsS'is_video'
p608
I00
sS'distinguished'
p609
Nsg27
I00
sb.