ccopy_reg
_reconstructor
p1
(cpraw.models.reddit.submission
Submission
p2
c__builtin__
object
p3
NtRp4
(dp5
S'domain'
p6
Varstechnica.com
p7
sS'approved_at_utc'
p8
NsS'_comments_by_id'
p9
(dp10
sS'_info_params'
p11
(dp12
sS'banned_by'
p13
NsS'comment_sort'
p14
S'best'
p15
sS'media_embed'
p16
(dp17
sS'thumbnail_width'
p18
I140
sS'subreddit'
p19
g1
(cpraw.models.reddit.subreddit
Subreddit
p20
g3
NtRp21
(dp22
S'_wiki'
p23
NsS'display_name'
p24
Vscience
p25
sS'_stylesheet'
p26
NsS'_fetched'
p27
I00
sg11
(dp28
sS'_contributor'
p29
NsS'_banned'
p30
NsS'_muted'
p31
NsS'_quarantine'
p32
NsS'_modmail'
p33
NsS'_flair'
p34
NsS'_reddit'
p35
g1
(cpraw.reddit
Reddit
p36
g3
NtRp37
(dp38
S'_core'
p39
g1
(cprawcore.sessions
Session
p40
g3
NtRp41
(dp42
S'_authorizer'
p43
g1
(cprawcore.auth
ScriptAuthorizer
p44
g3
NtRp45
(dp46
S'scopes'
p47
c__builtin__
set
p48
((lp49
V*
atRp50
sS'_username'
p51
VJS_Research
p52
sS'access_token'
p53
VoR7ueivAi-yeTmPh7RRrUoU-sm8
p54
sS'_authenticator'
p55
g1
(cprawcore.auth
TrustedAuthenticator
p56
g3
NtRp57
(dp58
S'client_secret'
p59
VBgciYaBpyH8ef21jXMyJjn_DARE
p60
sS'redirect_uri'
p61
g1
(cpraw.config
_NotSet
p62
g3
NtRp63
sS'client_id'
p64
VwU1FwN1ugWt7eQ
p65
sS'_requestor'
p66
g1
(cprawcore.requestor
Requestor
p67
g3
NtRp68
(dp69
S'_http'
p70
g1
(crequests.sessions
Session
p71
g3
NtRp72
(dp73
S'cookies'
p74
g1
(crequests.cookies
RequestsCookieJar
p75
g3
NtRp76
(dp77
S'_now'
p78
I1510895610
sS'_policy'
p79
(icookielib
DefaultCookiePolicy
p80
(dp81
S'strict_rfc2965_unverifiable'
p82
I01
sS'strict_ns_domain'
p83
I0
sS'_allowed_domains'
p84
NsS'rfc2109_as_netscape'
p85
NsS'rfc2965'
p86
I00
sS'strict_domain'
p87
I00
sg78
I1510895610
sS'strict_ns_set_path'
p88
I00
sS'strict_ns_unverifiable'
p89
I00
sS'strict_ns_set_initial_dollar'
p90
I00
sS'hide_cookie2'
p91
I00
sS'_blocked_domains'
p92
(tsS'netscape'
p93
I01
sbsS'_cookies'
p94
(dp95
S'.reddit.com'
p96
(dp97
S'/'
(dp98
S'loid'
p99
(icookielib
Cookie
p100
(dp101
S'comment'
p102
Nsg6
S'.reddit.com'
p103
sS'name'
p104
g99
sS'domain_initial_dot'
p105
I00
sS'expires'
p106
I1573967423
sS'value'
p107
S'00000000000e7dsf19.2.1505716153623.Z0FBQUFBQmFEbTlBU1EwbzUyZ293WTJBdDJaamk2V2s2dzRJQmlEV3MxUTQxN212M2ZKZjlhN0xrRnVlSUZoODZzUHZqeEdpdzZ1aFAyT0ZVdUQtRm85dzNpcDNfeG0wbi1iZGs3OWF6WXg4RzNqejI0SV9lUllITXBkUGF4LU14ejUzMWxtLTBHT2Q'
p108
sS'domain_specified'
p109
I01
sS'_rest'
p110
(dp111
sS'version'
p112
I0
sS'port_specified'
p113
I00
sS'rfc2109'
p114
I00
sS'discard'
p115
I00
sS'path_specified'
p116
I01
sS'path'
p117
S'/'
sS'port'
p118
NsS'comment_url'
p119
NsS'secure'
p120
I01
sbsS'session_tracker'
p121
(icookielib
Cookie
p122
(dp123
g102
Nsg6
S'.reddit.com'
p124
sg104
S'session_tracker'
p125
sg105
I00
sg106
I1510902809
sg107
S'crQiBtrEVfCCgtFogt.0.1510895610205.Z0FBQUFBQmFEbV82eHgzMEcwQ0hsRTIwSDVVRTJYcUJCVHJVbkh2a0V2ZnlkWS04a2ZnVkExdW5JQmtxdHN2Z005LXZ1RzZQVGNlSGVPU1JQNmwyMkdxdG9LWGlwNVdKRlQxT0JmTlBxUzludEQtblBxeWViNWNUeEZMSzAxWkVXT1E4TkY3bDl4dDU'
p126
sg109
I01
sg110
(dp127
sg112
I0
sg113
I00
sg114
I00
sg115
I00
sg116
I01
sg117
S'/'
sg118
Nsg119
Nsg120
I01
sbsS'edgebucket'
p128
(icookielib
Cookie
p129
(dp130
g102
Nsg6
S'.reddit.com'
p131
sg104
g128
sg105
I00
sg106
I1573967422
sg107
S'wR7VzApWCkJPkoMBgW'
p132
sg109
I01
sg110
(dp133
sg112
I0
sg113
I00
sg114
I00
sg115
I00
sg116
I01
sg117
S'/'
sg118
Nsg119
Nsg120
I01
sbssssbsS'stream'
p134
I00
sS'hooks'
p135
(dp136
S'response'
p137
(lp138
ssS'auth'
p139
NsS'trust_env'
p140
I01
sS'headers'
p141
g1
(crequests.structures
CaseInsensitiveDict
p142
g3
NtRp143
(dp144
S'_store'
p145
curllib3.packages.ordered_dict
OrderedDict
p146
((lp147
(lp148
S'connection'
p149
a(S'Connection'
p150
S'keep-alive'
p151
tp152
aa(lp153
S'accept-encoding'
p154
a(S'Accept-Encoding'
p155
S'gzip, deflate'
tp156
aa(lp157
S'accept'
p158
a(S'Accept'
p159
S'*/*'
p160
tp161
aa(lp162
S'user-agent'
p163
a(S'User-Agent'
p164
S'News Article Downloader /u/JS_Research PRAW/5.2.0 prawcore/0.12.0'
tp165
aatRp166
sbsS'cert'
p167
NsS'params'
p168
(dp169
sS'prefetch'
p170
NsS'verify'
p171
I01
sS'proxies'
p172
(dp173
sS'adapters'
p174
g146
((lp175
(lp176
S'https://'
p177
ag1
(crequests.adapters
HTTPAdapter
p178
g3
NtRp179
(dp180
S'_pool_block'
p181
I00
sS'_pool_maxsize'
p182
I10
sS'max_retries'
p183
g1
(curllib3.util.retry
Retry
p184
g3
NtRp185
(dp186
S'status'
p187
NsS'redirect'
p188
NsS'read'
p189
I00
sS'backoff_factor'
p190
I0
sS'respect_retry_after_header'
p191
I01
sS'history'
p192
(tsS'raise_on_status'
p193
I01
sS'connect'
p194
NsS'status_forcelist'
p195
g48
((ltRp196
sS'total'
p197
I0
sS'raise_on_redirect'
p198
I01
sS'method_whitelist'
p199
c__builtin__
frozenset
p200
((lp201
S'HEAD'
p202
aS'TRACE'
p203
aS'GET'
p204
aS'PUT'
p205
aS'OPTIONS'
p206
aS'DELETE'
p207
atRp208
sbsS'config'
p209
(dp210
sS'_pool_connections'
p211
I10
sbaa(lp212
S'http://'
p213
ag1
(g178
g3
NtRp214
(dp215
g181
I00
sg182
I10
sg183
g1
(g184
g3
NtRp216
(dp217
g187
Nsg188
Nsg189
I00
sg190
I0
sg191
I01
sg192
(tsg193
I01
sg194
Nsg195
g48
((ltRp218
sg197
I0
sg198
I01
sg199
g208
sbsg209
(dp219
sg211
I10
sbaatRp220
sS'max_redirects'
p221
I30
sbsS'reddit_url'
p222
S'https://www.reddit.com'
p223
sS'oauth_url'
p224
S'https://oauth.reddit.com'
p225
sbsbsS'_password'
p226
VXPlstazuMC0CaX1Njhf0ny5u^nMD5t*P73O
p227
sS'_expiration_timestamp'
p228
F1510899012.1773059
sS'refresh_token'
p229
NsbsS'_rate_limiter'
p230
g1
(cprawcore.rate_limit
RateLimiter
p231
g3
NtRp232
(dp233
S'used'
p234
I114
sS'remaining'
p235
F486
sS'next_request_timestamp'
p236
F1510895611.0569813
sS'reset_timestamp'
p237
F1510896000.2545121
sbsbsS'_objector'
p238
g1
(cpraw.objector
Objector
p239
g3
NtRp240
(dp241
g35
g37
sS'parsers'
p242
(dp243
S'LiveUpdate'
p244
cpraw.models.reddit.live
LiveUpdate
p245
sS'ModmailConversation'
p246
cpraw.models.reddit.modmail
ModmailConversation
p247
sS'ModmailMessage'
p248
cpraw.models.reddit.modmail
ModmailMessage
p249
sS't4'
p250
cpraw.models.reddit.message
Message
p251
sS't5'
p252
g20
sS't2'
p253
cpraw.models.reddit.redditor
Redditor
p254
sS't3'
p255
g2
sS't1'
p256
cpraw.models.reddit.comment
Comment
p257
sS'UserList'
p258
cpraw.models.list.redditor
RedditorList
p259
sS'stylesheet'
p260
cpraw.models.stylesheet
Stylesheet
p261
sS'LabeledMulti'
p262
cpraw.models.reddit.multi
Multireddit
p263
sS'Listing'
p264
cpraw.models.listing.listing
Listing
p265
sS'modaction'
p266
cpraw.models.modaction
ModAction
p267
sS'LiveUpdateEvent'
p268
cpraw.models.reddit.live
LiveThread
p269
sS'ModmailAction'
p270
cpraw.models.reddit.modmail
ModmailAction
p271
sS'more'
p272
cpraw.models.reddit.more
MoreComments
p273
ssbsS'subreddits'
p274
g1
(cpraw.models.subreddits
Subreddits
p275
g3
NtRp276
(dp277
g35
g37
sbsg139
g1
(cpraw.models.auth
Auth
p278
g3
NtRp279
(dp280
g35
g37
sbsg19
g1
(cpraw.models.helpers
SubredditHelper
p281
g3
NtRp282
(dp283
g35
g37
sbsS'front'
p284
g1
(cpraw.models.front
Front
p285
g3
NtRp286
(dp287
g35
g37
sS'_comments'
p288
NsS'_path'
p289
S'/'
sbsS'live'
p290
g1
(cpraw.models.helpers
LiveHelper
p291
g3
NtRp292
(dp293
g35
g37
sbsS'inbox'
p294
g1
(cpraw.models.inbox
Inbox
p295
g3
NtRp296
(dp297
g35
g37
sbsS'multireddit'
p298
g1
(cpraw.models.helpers
MultiredditHelper
p299
g3
NtRp300
(dp301
g35
g37
sbsS'_unique_counter'
p302
I0
sg209
g1
(cpraw.config
Config
p303
g3
NtRp304
(dp305
S'username'
p306
g52
sg222
g223
sS'_settings'
p307
(dp308
g306
g52
sg59
g60
sS'password'
p309
g227
sS'user_agent'
p310
VNews Article Downloader /u/JS_Research
p311
sg64
g65
ssS'check_for_updates'
p312
I01
sS'custom'
p313
(dp314
sg61
g63
sg310
g311
sg64
g65
sS'_short_url'
p315
S'https://redd.it'
p316
sg59
g60
sg224
g225
sg309
g227
sS'kinds'
p317
(dp318
g102
g256
sS'message'
p319
g250
sS'redditor'
p320
g253
sS'submission'
p321
g255
sg19
g252
ssg229
g63
sbsS'_read_only_core'
p322
g1
(g40
g3
NtRp323
(dp324
g43
g1
(cprawcore.auth
ReadOnlyAuthorizer
p325
g3
NtRp326
(dp327
g53
Nsg47
Nsg228
Nsg229
Nsg55
g57
sbsg230
g1
(g231
g3
NtRp328
(dp329
g234
Nsg235
Nsg236
Nsg237
NsbsbsS'_authorized_core'
p330
g41
sS'user'
p331
g1
(cpraw.models.user
User
p332
g3
NtRp333
(dp334
g35
g37
sS'_me'
p335
g1
(g254
g3
NtRp336
(dp337
S'is_employee'
p338
I00
sS'has_visited_new_profile'
p339
I00
sS'pref_no_profanity'
p340
I01
sg11
(dp341
sS'is_suspended'
p342
I00
sS'pref_geopopular'
p343
V
sS'_listing_use_sort'
p344
I01
sg19
NsS'is_sponsor'
p345
I00
sS'gold_expiration'
p346
NsS'id'
p347
Ve7dsf19
p348
sS'suspension_expiration_utc'
p349
NsS'verified'
p350
I00
sg27
I00
sS'new_modmail_exists'
p351
NsS'features'
p352
(dp353
Vsearch_public_traffic
p354
(dp355
Vowner
p356
Vsearch
p357
sVvariant
p358
Vnew_search_11
p359
sVexperiment_id
p360
I212
ssVdo_not_track
p361
I01
sVgeopopular_au_holdout
p362
(dp363
Vowner
p364
Vrelevance
p365
sVvariant
p366
Vcontrol_2
p367
sVexperiment_id
p368
I206
ssVshow_amp_link
p369
I01
sVlive_happening_now
p370
I01
sVadserver_reporting
p371
I01
sVgeopopular
p372
I01
sVchat_rollout
p373
I01
sVads_auto_refund
p374
I01
sVlisting_service_rampup
p375
I01
sVmobile_web_targeting
p376
I01
sVdefault_srs_holdout
p377
(dp378
Vowner
p379
Vrelevance
p380
sVvariant
p381
Vtutorial
p382
sVexperiment_id
p383
I171
ssVadzerk_do_not_track
p384
I01
sVusers_listing
p385
I01
sVshow_user_sr_name
p386
I01
sVwhitelisted_pms
p387
I01
sVpersonalization_prefs
p388
I01
sVupgrade_cookies
p389
I01
sVnew_overview
p390
I01
sVnew_report_flow
p391
I01
sVblock_user_by_report
p392
I01
sVadblock_test
p393
I01
sVlegacy_search_pref
p394
I01
sVorangereds_as_emails
p395
I01
sVmweb_xpromo_modal_listing_click_daily_dismissible_ios
p396
I01
sVexpando_events
p397
I01
sVeu_cookie_policy
p398
I01
sVprogrammatic_ads
p399
I01
sVforce_https
p400
I01
sVinbox_push
p401
I01
sVpost_to_profile_beta
p402
I01
sVcrossposting_ga
p403
I01
sVoutbound_clicktracking
p404
I01
sVnew_loggedin_cache_policy
p405
I01
sVshow_secret_santa
p406
I01
sVhttps_redirect
p407
I01
sVsearch_dark_traffic
p408
I01
sVmweb_xpromo_interstitial_comments_ios
p409
I01
sVpause_ads
p410
I01
sVgive_hsts_grants
p411
I01
sVshow_recommended_link
p412
I01
sVmobile_native_banner
p413
I01
sVmweb_xpromo_interstitial_comments_android
p414
I01
sVads_auction
p415
I01
sVgeopopular_se_holdout
p416
(dp417
Vowner
p418
Vrelevance
p419
sVvariant
p420
Vcontrol_2
p421
sVexperiment_id
p422
I224
ssVscreenview_events
p423
I01
sVsubreddit_recommendations_carousel_holdout
p424
(dp425
Vowner
p426
Vrelevance
p427
sVvariant
p428
Vcontrol_2
p429
sVexperiment_id
p430
I239
ssVnew_report_dialog
p431
I01
sVmoat_tracking
p432
I01
sVsubreddit_rules
p433
I01
sVadzerk_reporting_2
p434
I01
sVactivity_service_write
p435
I01
sVads_auto_extend
p436
I01
sVinterest_targeting
p437
I01
sVpost_embed
p438
I01
sVmweb_xpromo_ad_loading_android
p439
(dp440
Vowner
p441
Vchannels
p442
sVvariant
p443
Vcontrol_1
p444
sVexperiment_id
p445
I187
ssVscroll_events
p446
I01
sVmweb_xpromo_modal_listing_click_daily_dismissible_android
p447
I01
sVcrossposting_recent
p448
I01
sVactivity_service_read
p449
I01
ssS'over_18'
p450
I00
sS'is_gold'
p451
I00
sS'is_mod'
p452
I00
sS'has_verified_email'
p453
I00
sS'in_redesign_beta'
p454
I00
sS'has_mod_mail'
p455
I00
sS'oauth_client_id'
p456
VwU1FwN1ugWt7eQ
p457
sS'hide_from_robots'
p458
I00
sS'link_karma'
p459
I1
sg35
g37
sS'inbox_count'
p460
I1
sS'pref_top_karma_subreddits'
p461
NsS'has_mail'
p462
I01
sS'pref_show_snoovatar'
p463
I00
sg104
VJS_Research
p464
sS'created'
p465
F1505744953
sS'_stream'
p466
NsS'gold_creddits'
p467
I0
sS'created_utc'
p468
F1505716153
sS'in_beta'
p469
I00
sS'comment_karma'
p470
I0
sS'has_subscribed'
p471
I00
sg289
S'user/JS_Research/'
p472
sbsbsbsS'_filters'
p473
Nsg466
Nsg288
NsS'_mod'
p474
NsS'_moderator'
p475
Nsg289
S'r/science/'
p476
sbsS'selftext_html'
p477
NsS'selftext'
p478
V
sS'likes'
p479
NsS'suggested_sort'
p480
Vconfidence
p481
sS'user_reports'
p482
(lp483
sS'secure_media'
p484
NsS'is_reddit_media_domain'
p485
I00
sS'link_flair_text'
p486
VChemistry
p487
sg347
V6xencq
p488
sS'banned_at_utc'
p489
NsS'view_count'
p490
NsS'archived'
p491
I00
sS'clicked'
p492
I00
sS'report_reasons'
p493
NsS'title'
p494
VResearchers find an enzyme that allows algae to turn fat directly into hydrocarbons using nothing more than sunlight, which could be used as fuel with no further modification.
p495
sS'num_crossposts'
p496
I0
sS'saved'
p497
I00
sS'mod_reports'
p498
(lp499
sS'can_mod_post'
p500
I00
sS'is_crosspostable'
p501
I00
sS'pinned'
p502
I00
sS'comment_limit'
p503
I2048
sS'score'
p504
I1076
sS'approved_by'
p505
Nsg450
I00
sS'hidden'
p506
I00
sS'preview'
p507
(dp508
Vimages
p509
(lp510
(dp511
Vsource
p512
(dp513
Vurl
p514
Vhttps://i.redditmedia.com/DEb98j_8UFpFeP5gSV27E-yBWqOW3JxTWWKnqSzPuis.jpg?s=be84902d306149230515f4c7188df10e
p515
sVwidth
p516
I760
sVheight
p517
I380
ssVresolutions
p518
(lp519
(dp520
Vurl
p521
Vhttps://i.redditmedia.com/DEb98j_8UFpFeP5gSV27E-yBWqOW3JxTWWKnqSzPuis.jpg?fit=crop&crop=faces%2Centropy&arh=2&w=108&s=8eec8c18c41acdb236b317fadfba8487
p522
sVwidth
p523
I108
sVheight
p524
I54
sa(dp525
Vurl
p526
Vhttps://i.redditmedia.com/DEb98j_8UFpFeP5gSV27E-yBWqOW3JxTWWKnqSzPuis.jpg?fit=crop&crop=faces%2Centropy&arh=2&w=216&s=941bc6cd755a6dc2b554468833ad8823
p527
sVwidth
p528
I216
sVheight
p529
I108
sa(dp530
Vurl
p531
Vhttps://i.redditmedia.com/DEb98j_8UFpFeP5gSV27E-yBWqOW3JxTWWKnqSzPuis.jpg?fit=crop&crop=faces%2Centropy&arh=2&w=320&s=69ec36cb11619d24573aa340ded8286c
p532
sVwidth
p533
I320
sVheight
p534
I160
sa(dp535
Vurl
p536
Vhttps://i.redditmedia.com/DEb98j_8UFpFeP5gSV27E-yBWqOW3JxTWWKnqSzPuis.jpg?fit=crop&crop=faces%2Centropy&arh=2&w=640&s=340442d332ae8f30143d0e401d69396a
p537
sVwidth
p538
I640
sVheight
p539
I320
sasVvariants
p540
(dp541
sVid
p542
VBQtFH-eQr4HK8aEhc3ZYhvl8y-itr9tm_Uw09Gw0Qz8
p543
sasVenabled
p544
I00
ssS'thumbnail'
p545
Vhttps://b.thumbs.redditmedia.com/1GncVU5cHBj1gVHFSKHxZY1V-ZtUFOG1xHN16uZmQlE.jpg
p546
sS'subreddit_id'
p547
Vt5_mouw
p548
sS'whitelist_status'
p549
Vall_ads
p550
sS'edited'
p551
I00
sS'link_flair_css_class'
p552
Vchem
p553
sS'author_flair_css_class'
p554
Vmed   reward3
p555
sS'contest_mode'
p556
I00
sS'gilded'
p557
I0
sS'downs'
p558
I0
sS'brand_safe'
p559
I01
sS'secure_media_embed'
p560
(dp561
sS'removal_reason'
p562
NsS'post_hint'
p563
Vlink
p564
sS'stickied'
p565
I00
sg35
g37
sS'can_gild'
p566
I01
sS'thumbnail_height'
p567
I70
sS'parent_whitelist_status'
p568
Vall_ads
p569
sg104
Vt3_6xencq
p570
sg474
NsS'spoiler'
p571
I00
sS'permalink'
p572
V/r/science/comments/6xencq/researchers_find_an_enzyme_that_allows_algae_to/
p573
sS'subreddit_type'
p574
Vpublic
p575
sS'locked'
p576
I00
sS'hide_score'
p577
I00
sg465
F1504302658
sS'url'
p578
Vhttps://arstechnica.com/science/2017/08/newly-discovered-enzyme-uses-light-to-turn-fat-into-fuel/
p579
sS'author_flair_text'
p580
VMD-PhD-MBA | Clinical Professor/Medicine
p581
sS'quarantine'
p582
I00
sS'author'
p583
g1
(g254
g3
NtRp584
(dp585
g104
Vmvea
p586
sg27
I00
sg11
(dp587
sg344
I01
sg466
Nsg35
g37
sg289
S'user/mvea/'
p588
sbsg468
F1504273858
sS'subreddit_name_prefixed'
p589
Vr/science
p590
sS'ups'
p591
I1076
sg34
NsS'media'
p592
NsS'article_text'
p593
VIt's pretty easy to grow vast quantities of microbes. It's a lot harder to convert those microbes into something useful. For example, we've engineered algae that, when starved for nitrogen, will put most of their stored energy into fats. Fats are chemically similar to hydrocarbons, so this is potentially useful for making biofuel. But "similar" isn't really good enough; you still need to process the fats before they can be used as a fuel.\u000a\u000aBut some researchers may have figured out a way to get biology to convert fats directly to hydrocarbons using nothing more than sunlight. They've identified an enzyme that catalyzes the conversion of fats to long hydrocarbons, which could be used as fuel with no further modification.\u000a\u000aFat vs. fuel\u000a\u000aGasoline is a mixture of different hydrocarbons, which are molecules that contain only hydrogen and carbon. The simplest hydrocarbons are linear chains, with a backbone of carbon atoms where each carbon is linked to, at most, two others (with two or three hydrogen atoms also linked to each carbon). The chemical processing done in refineries ensures that gasoline mostly contains branched hydrocarbons, wherein some carbon atoms are linked to three or four other carbons.\u000a\u000aFats (technically fatty acids) are almost-but-not-quite hydrocarbons. They have long linear chains of carbon atoms, but one of the end carbons is linked to two oxygen atoms. While this may seem like a relatively minor change to a carbon chain that can be 20 or more atoms long, the presence of the oxygen radically changes the chemistry of the molecule. It makes fats more likely to form solids, allows them to mix with water, and turns them into weak acids. All of these properties make fats a terrible option for use in internal combustion engines.\u000a\u000aThe obvious solution is to simply lop off the terminal carbon that's linked to those oxygens. Unfortunately, from a chemistry standpoint, the link to that carbon is more robust than the other links further down the chain. In other words, most chemical reactions will simply break the chain somewhere at random in the middle, which is not especially useful. Alternatives for getting rid of the oxygens tend to involve multiple steps, each requiring an input of energy and an efficiency less than 100 percent.\u000a\u000aNote that the last sentence says "tend to" and not "always." Last year, French researchers discovered that certain species of algae are able to convert fats directly to hydrocarbons. Their new paper describes how they figured out why these algae are able to do so.\u000a\u000aLet there be light\u000a\u000aThe conversion process was potentially interesting from a biology perspective as well. That's because it seemed to involve light as an input. Even though almost all life on Earth depends directly or indirectly on sunlight, remarkably few chemical reactions used by life require light as an input. A search of the literature showed a grand total of three reactions, two of which are used for photosynthesis (the third repairs damaged DNA). If the fat-converting process used light to provide energy, then it would be big news for biology.\u000a\u000aTo find out, the researchers in France did some old fashioned biochemistry. They took the algae, ground them up, and then ran their contents over a variety of different materials that filter those contents based on different chemical properties, like molecular weight, charge, etc. This left them with a variety of protein solutions, each containing a fraction of the cells' contents, ranging from dozens to hundreds of proteins.\u000a\u000aThe researchers tested each of these fractions for the fat-converting activity. In the end, they found three fractions that contained the activity: one with 42 proteins, one with 93 proteins, and one with 709 proteins. Each of these proteins was identified, and the researchers discovered that a set of 10 proteins were present in all three fractions. Nine of these proteins were well known, and we knew what they did. The 10th was a mystery, so the researchers focused on it.\u000a\u000aThey identified its gene and tweaked it so that it worked in bacteria. Once it was transferred to the bacteria, they were also able to convert fats to hydrocarbons. And the researchers could switch the conversion on and off by switching from red to blue lightthe reaction required blue light to work. They also purified the protein and fed it fat which had had its carbon labelled with a specific isotope. This isotope showed up in carbon dioxide released by the reaction, confirming that the enzyme was simply lopping off the carbon bonded to the oxygen.\u000a\u000aHow does the protein manage this trick, and why does it need light to do it? The blue light it uses turns out to be the wavelengths typically absorbed by a chemical called "flavin adenine dinucleotide" (FAD), which is commonly used as a co-factor in many biochemical reactions. And, when the researchers looked at the structure of the enzyme, they found that FAD is present and held in close proximity to the oxygens of the fat molecule.\u000a\u000aThe authors think that, in this enzyme, light causes FAD to steal an electron from the fat molecule, leaving it in an unstable state. The fat responds by kicking out a carbon and two oxygens, forming carbon dioxide, a process that's very energetically favorable. After that happens, the remaining hydrocarbon steals the electron back from the FAD, resetting the enzyme for use on another fat molecule.\u000a\u000aSo, because it uses light for energy, the system doesn't need to be supplied with a constant source of chemical energy. That makes it much more convenient for use in processing chemicals than other enzymes, where you typically have to keep refreshing a supply of a chemical energy source (like ATP). It also makes the newly discovered enzyme interesting, since there are so few other examples of light-driven enzymes out there to study.\u000a\u000aFinally, the whole system works by light-driven electron transfers. And shifting electrons around is a central feature of a huge range of chemical reactions. This leads the authors to suggest that modifications to the enzyme could get it to catalyze very different chemical reactions. So biohackers could potentially have a field day generating new applications for this system.\u000a\u000aScience, 2017. DOI: 10.1126/science.aan6349 (About DOIs).
p594
sS'num_comments'
p595
I54
sS'is_self'
p596
I00
sS'visited'
p597
I00
sS'num_reports'
p598
NsS'is_video'
p599
I00
sS'distinguished'
p600
Nsg27
I00
sb.