ccopy_reg
_reconstructor
p1
(cpraw.models.reddit.submission
Submission
p2
c__builtin__
object
p3
NtRp4
(dp5
S'domain'
p6
Vnature.com
p7
sS'approved_at_utc'
p8
NsS'_comments_by_id'
p9
(dp10
sS'_info_params'
p11
(dp12
sS'banned_by'
p13
NsS'comment_sort'
p14
S'best'
p15
sS'media_embed'
p16
(dp17
sS'thumbnail_width'
p18
I140
sS'subreddit'
p19
g1
(cpraw.models.reddit.subreddit
Subreddit
p20
g3
NtRp21
(dp22
S'_wiki'
p23
NsS'display_name'
p24
Vscience
p25
sS'_stylesheet'
p26
NsS'_fetched'
p27
I00
sg11
(dp28
sS'_contributor'
p29
NsS'_banned'
p30
NsS'_muted'
p31
NsS'_quarantine'
p32
NsS'_modmail'
p33
NsS'_flair'
p34
NsS'_reddit'
p35
g1
(cpraw.reddit
Reddit
p36
g3
NtRp37
(dp38
S'_core'
p39
g1
(cprawcore.sessions
Session
p40
g3
NtRp41
(dp42
S'_authorizer'
p43
g1
(cprawcore.auth
ScriptAuthorizer
p44
g3
NtRp45
(dp46
S'scopes'
p47
c__builtin__
set
p48
((lp49
V*
atRp50
sS'_username'
p51
VJS_Research
p52
sS'access_token'
p53
VoR7ueivAi-yeTmPh7RRrUoU-sm8
p54
sS'_authenticator'
p55
g1
(cprawcore.auth
TrustedAuthenticator
p56
g3
NtRp57
(dp58
S'client_secret'
p59
VBgciYaBpyH8ef21jXMyJjn_DARE
p60
sS'redirect_uri'
p61
g1
(cpraw.config
_NotSet
p62
g3
NtRp63
sS'client_id'
p64
VwU1FwN1ugWt7eQ
p65
sS'_requestor'
p66
g1
(cprawcore.requestor
Requestor
p67
g3
NtRp68
(dp69
S'_http'
p70
g1
(crequests.sessions
Session
p71
g3
NtRp72
(dp73
S'cookies'
p74
g1
(crequests.cookies
RequestsCookieJar
p75
g3
NtRp76
(dp77
S'_now'
p78
I1510895610
sS'_policy'
p79
(icookielib
DefaultCookiePolicy
p80
(dp81
S'strict_rfc2965_unverifiable'
p82
I01
sS'strict_ns_domain'
p83
I0
sS'_allowed_domains'
p84
NsS'rfc2109_as_netscape'
p85
NsS'rfc2965'
p86
I00
sS'strict_domain'
p87
I00
sg78
I1510895610
sS'strict_ns_set_path'
p88
I00
sS'strict_ns_unverifiable'
p89
I00
sS'strict_ns_set_initial_dollar'
p90
I00
sS'hide_cookie2'
p91
I00
sS'_blocked_domains'
p92
(tsS'netscape'
p93
I01
sbsS'_cookies'
p94
(dp95
S'.reddit.com'
p96
(dp97
S'/'
(dp98
S'loid'
p99
(icookielib
Cookie
p100
(dp101
S'comment'
p102
Nsg6
S'.reddit.com'
p103
sS'name'
p104
g99
sS'domain_initial_dot'
p105
I00
sS'expires'
p106
I1573967423
sS'value'
p107
S'00000000000e7dsf19.2.1505716153623.Z0FBQUFBQmFEbTlBU1EwbzUyZ293WTJBdDJaamk2V2s2dzRJQmlEV3MxUTQxN212M2ZKZjlhN0xrRnVlSUZoODZzUHZqeEdpdzZ1aFAyT0ZVdUQtRm85dzNpcDNfeG0wbi1iZGs3OWF6WXg4RzNqejI0SV9lUllITXBkUGF4LU14ejUzMWxtLTBHT2Q'
p108
sS'domain_specified'
p109
I01
sS'_rest'
p110
(dp111
sS'version'
p112
I0
sS'port_specified'
p113
I00
sS'rfc2109'
p114
I00
sS'discard'
p115
I00
sS'path_specified'
p116
I01
sS'path'
p117
S'/'
sS'port'
p118
NsS'comment_url'
p119
NsS'secure'
p120
I01
sbsS'session_tracker'
p121
(icookielib
Cookie
p122
(dp123
g102
Nsg6
S'.reddit.com'
p124
sg104
S'session_tracker'
p125
sg105
I00
sg106
I1510902809
sg107
S'crQiBtrEVfCCgtFogt.0.1510895610205.Z0FBQUFBQmFEbV82eHgzMEcwQ0hsRTIwSDVVRTJYcUJCVHJVbkh2a0V2ZnlkWS04a2ZnVkExdW5JQmtxdHN2Z005LXZ1RzZQVGNlSGVPU1JQNmwyMkdxdG9LWGlwNVdKRlQxT0JmTlBxUzludEQtblBxeWViNWNUeEZMSzAxWkVXT1E4TkY3bDl4dDU'
p126
sg109
I01
sg110
(dp127
sg112
I0
sg113
I00
sg114
I00
sg115
I00
sg116
I01
sg117
S'/'
sg118
Nsg119
Nsg120
I01
sbsS'edgebucket'
p128
(icookielib
Cookie
p129
(dp130
g102
Nsg6
S'.reddit.com'
p131
sg104
g128
sg105
I00
sg106
I1573967422
sg107
S'wR7VzApWCkJPkoMBgW'
p132
sg109
I01
sg110
(dp133
sg112
I0
sg113
I00
sg114
I00
sg115
I00
sg116
I01
sg117
S'/'
sg118
Nsg119
Nsg120
I01
sbssssbsS'stream'
p134
I00
sS'hooks'
p135
(dp136
S'response'
p137
(lp138
ssS'auth'
p139
NsS'trust_env'
p140
I01
sS'headers'
p141
g1
(crequests.structures
CaseInsensitiveDict
p142
g3
NtRp143
(dp144
S'_store'
p145
curllib3.packages.ordered_dict
OrderedDict
p146
((lp147
(lp148
S'connection'
p149
a(S'Connection'
p150
S'keep-alive'
p151
tp152
aa(lp153
S'accept-encoding'
p154
a(S'Accept-Encoding'
p155
S'gzip, deflate'
tp156
aa(lp157
S'accept'
p158
a(S'Accept'
p159
S'*/*'
p160
tp161
aa(lp162
S'user-agent'
p163
a(S'User-Agent'
p164
S'News Article Downloader /u/JS_Research PRAW/5.2.0 prawcore/0.12.0'
tp165
aatRp166
sbsS'cert'
p167
NsS'params'
p168
(dp169
sS'prefetch'
p170
NsS'verify'
p171
I01
sS'proxies'
p172
(dp173
sS'adapters'
p174
g146
((lp175
(lp176
S'https://'
p177
ag1
(crequests.adapters
HTTPAdapter
p178
g3
NtRp179
(dp180
S'_pool_block'
p181
I00
sS'_pool_maxsize'
p182
I10
sS'max_retries'
p183
g1
(curllib3.util.retry
Retry
p184
g3
NtRp185
(dp186
S'status'
p187
NsS'redirect'
p188
NsS'read'
p189
I00
sS'backoff_factor'
p190
I0
sS'respect_retry_after_header'
p191
I01
sS'history'
p192
(tsS'raise_on_status'
p193
I01
sS'connect'
p194
NsS'status_forcelist'
p195
g48
((ltRp196
sS'total'
p197
I0
sS'raise_on_redirect'
p198
I01
sS'method_whitelist'
p199
c__builtin__
frozenset
p200
((lp201
S'HEAD'
p202
aS'TRACE'
p203
aS'GET'
p204
aS'PUT'
p205
aS'OPTIONS'
p206
aS'DELETE'
p207
atRp208
sbsS'config'
p209
(dp210
sS'_pool_connections'
p211
I10
sbaa(lp212
S'http://'
p213
ag1
(g178
g3
NtRp214
(dp215
g181
I00
sg182
I10
sg183
g1
(g184
g3
NtRp216
(dp217
g187
Nsg188
Nsg189
I00
sg190
I0
sg191
I01
sg192
(tsg193
I01
sg194
Nsg195
g48
((ltRp218
sg197
I0
sg198
I01
sg199
g208
sbsg209
(dp219
sg211
I10
sbaatRp220
sS'max_redirects'
p221
I30
sbsS'reddit_url'
p222
S'https://www.reddit.com'
p223
sS'oauth_url'
p224
S'https://oauth.reddit.com'
p225
sbsbsS'_password'
p226
VXPlstazuMC0CaX1Njhf0ny5u^nMD5t*P73O
p227
sS'_expiration_timestamp'
p228
F1510899012.1773059
sS'refresh_token'
p229
NsbsS'_rate_limiter'
p230
g1
(cprawcore.rate_limit
RateLimiter
p231
g3
NtRp232
(dp233
S'used'
p234
I114
sS'remaining'
p235
F486
sS'next_request_timestamp'
p236
F1510895611.0569813
sS'reset_timestamp'
p237
F1510896000.2545121
sbsbsS'_objector'
p238
g1
(cpraw.objector
Objector
p239
g3
NtRp240
(dp241
g35
g37
sS'parsers'
p242
(dp243
S'LiveUpdate'
p244
cpraw.models.reddit.live
LiveUpdate
p245
sS'ModmailConversation'
p246
cpraw.models.reddit.modmail
ModmailConversation
p247
sS'ModmailMessage'
p248
cpraw.models.reddit.modmail
ModmailMessage
p249
sS't4'
p250
cpraw.models.reddit.message
Message
p251
sS't5'
p252
g20
sS't2'
p253
cpraw.models.reddit.redditor
Redditor
p254
sS't3'
p255
g2
sS't1'
p256
cpraw.models.reddit.comment
Comment
p257
sS'UserList'
p258
cpraw.models.list.redditor
RedditorList
p259
sS'stylesheet'
p260
cpraw.models.stylesheet
Stylesheet
p261
sS'LabeledMulti'
p262
cpraw.models.reddit.multi
Multireddit
p263
sS'Listing'
p264
cpraw.models.listing.listing
Listing
p265
sS'modaction'
p266
cpraw.models.modaction
ModAction
p267
sS'LiveUpdateEvent'
p268
cpraw.models.reddit.live
LiveThread
p269
sS'ModmailAction'
p270
cpraw.models.reddit.modmail
ModmailAction
p271
sS'more'
p272
cpraw.models.reddit.more
MoreComments
p273
ssbsS'subreddits'
p274
g1
(cpraw.models.subreddits
Subreddits
p275
g3
NtRp276
(dp277
g35
g37
sbsg139
g1
(cpraw.models.auth
Auth
p278
g3
NtRp279
(dp280
g35
g37
sbsg19
g1
(cpraw.models.helpers
SubredditHelper
p281
g3
NtRp282
(dp283
g35
g37
sbsS'front'
p284
g1
(cpraw.models.front
Front
p285
g3
NtRp286
(dp287
g35
g37
sS'_comments'
p288
NsS'_path'
p289
S'/'
sbsS'live'
p290
g1
(cpraw.models.helpers
LiveHelper
p291
g3
NtRp292
(dp293
g35
g37
sbsS'inbox'
p294
g1
(cpraw.models.inbox
Inbox
p295
g3
NtRp296
(dp297
g35
g37
sbsS'multireddit'
p298
g1
(cpraw.models.helpers
MultiredditHelper
p299
g3
NtRp300
(dp301
g35
g37
sbsS'_unique_counter'
p302
I0
sg209
g1
(cpraw.config
Config
p303
g3
NtRp304
(dp305
S'username'
p306
g52
sg222
g223
sS'_settings'
p307
(dp308
g306
g52
sg59
g60
sS'password'
p309
g227
sS'user_agent'
p310
VNews Article Downloader /u/JS_Research
p311
sg64
g65
ssS'check_for_updates'
p312
I01
sS'custom'
p313
(dp314
sg61
g63
sg310
g311
sg64
g65
sS'_short_url'
p315
S'https://redd.it'
p316
sg59
g60
sg224
g225
sg309
g227
sS'kinds'
p317
(dp318
g102
g256
sS'message'
p319
g250
sS'redditor'
p320
g253
sS'submission'
p321
g255
sg19
g252
ssg229
g63
sbsS'_read_only_core'
p322
g1
(g40
g3
NtRp323
(dp324
g43
g1
(cprawcore.auth
ReadOnlyAuthorizer
p325
g3
NtRp326
(dp327
g53
Nsg47
Nsg228
Nsg229
Nsg55
g57
sbsg230
g1
(g231
g3
NtRp328
(dp329
g234
Nsg235
Nsg236
Nsg237
NsbsbsS'_authorized_core'
p330
g41
sS'user'
p331
g1
(cpraw.models.user
User
p332
g3
NtRp333
(dp334
g35
g37
sS'_me'
p335
g1
(g254
g3
NtRp336
(dp337
S'is_employee'
p338
I00
sS'has_visited_new_profile'
p339
I00
sS'pref_no_profanity'
p340
I01
sg11
(dp341
sS'is_suspended'
p342
I00
sS'pref_geopopular'
p343
V
sS'_listing_use_sort'
p344
I01
sg19
NsS'is_sponsor'
p345
I00
sS'gold_expiration'
p346
NsS'id'
p347
Ve7dsf19
p348
sS'suspension_expiration_utc'
p349
NsS'verified'
p350
I00
sg27
I00
sS'new_modmail_exists'
p351
NsS'features'
p352
(dp353
Vsearch_public_traffic
p354
(dp355
Vowner
p356
Vsearch
p357
sVvariant
p358
Vnew_search_11
p359
sVexperiment_id
p360
I212
ssVdo_not_track
p361
I01
sVgeopopular_au_holdout
p362
(dp363
Vowner
p364
Vrelevance
p365
sVvariant
p366
Vcontrol_2
p367
sVexperiment_id
p368
I206
ssVshow_amp_link
p369
I01
sVlive_happening_now
p370
I01
sVadserver_reporting
p371
I01
sVgeopopular
p372
I01
sVchat_rollout
p373
I01
sVads_auto_refund
p374
I01
sVlisting_service_rampup
p375
I01
sVmobile_web_targeting
p376
I01
sVdefault_srs_holdout
p377
(dp378
Vowner
p379
Vrelevance
p380
sVvariant
p381
Vtutorial
p382
sVexperiment_id
p383
I171
ssVadzerk_do_not_track
p384
I01
sVusers_listing
p385
I01
sVshow_user_sr_name
p386
I01
sVwhitelisted_pms
p387
I01
sVpersonalization_prefs
p388
I01
sVupgrade_cookies
p389
I01
sVnew_overview
p390
I01
sVnew_report_flow
p391
I01
sVblock_user_by_report
p392
I01
sVadblock_test
p393
I01
sVlegacy_search_pref
p394
I01
sVorangereds_as_emails
p395
I01
sVmweb_xpromo_modal_listing_click_daily_dismissible_ios
p396
I01
sVexpando_events
p397
I01
sVeu_cookie_policy
p398
I01
sVprogrammatic_ads
p399
I01
sVforce_https
p400
I01
sVinbox_push
p401
I01
sVpost_to_profile_beta
p402
I01
sVcrossposting_ga
p403
I01
sVoutbound_clicktracking
p404
I01
sVnew_loggedin_cache_policy
p405
I01
sVshow_secret_santa
p406
I01
sVhttps_redirect
p407
I01
sVsearch_dark_traffic
p408
I01
sVmweb_xpromo_interstitial_comments_ios
p409
I01
sVpause_ads
p410
I01
sVgive_hsts_grants
p411
I01
sVshow_recommended_link
p412
I01
sVmobile_native_banner
p413
I01
sVmweb_xpromo_interstitial_comments_android
p414
I01
sVads_auction
p415
I01
sVgeopopular_se_holdout
p416
(dp417
Vowner
p418
Vrelevance
p419
sVvariant
p420
Vcontrol_2
p421
sVexperiment_id
p422
I224
ssVscreenview_events
p423
I01
sVsubreddit_recommendations_carousel_holdout
p424
(dp425
Vowner
p426
Vrelevance
p427
sVvariant
p428
Vcontrol_2
p429
sVexperiment_id
p430
I239
ssVnew_report_dialog
p431
I01
sVmoat_tracking
p432
I01
sVsubreddit_rules
p433
I01
sVadzerk_reporting_2
p434
I01
sVactivity_service_write
p435
I01
sVads_auto_extend
p436
I01
sVinterest_targeting
p437
I01
sVpost_embed
p438
I01
sVmweb_xpromo_ad_loading_android
p439
(dp440
Vowner
p441
Vchannels
p442
sVvariant
p443
Vcontrol_1
p444
sVexperiment_id
p445
I187
ssVscroll_events
p446
I01
sVmweb_xpromo_modal_listing_click_daily_dismissible_android
p447
I01
sVcrossposting_recent
p448
I01
sVactivity_service_read
p449
I01
ssS'over_18'
p450
I00
sS'is_gold'
p451
I00
sS'is_mod'
p452
I00
sS'has_verified_email'
p453
I00
sS'in_redesign_beta'
p454
I00
sS'has_mod_mail'
p455
I00
sS'oauth_client_id'
p456
VwU1FwN1ugWt7eQ
p457
sS'hide_from_robots'
p458
I00
sS'link_karma'
p459
I1
sg35
g37
sS'inbox_count'
p460
I1
sS'pref_top_karma_subreddits'
p461
NsS'has_mail'
p462
I01
sS'pref_show_snoovatar'
p463
I00
sg104
VJS_Research
p464
sS'created'
p465
F1505744953
sS'_stream'
p466
NsS'gold_creddits'
p467
I0
sS'created_utc'
p468
F1505716153
sS'in_beta'
p469
I00
sS'comment_karma'
p470
I0
sS'has_subscribed'
p471
I00
sg289
S'user/JS_Research/'
p472
sbsbsbsS'_filters'
p473
Nsg466
Nsg288
NsS'_mod'
p474
NsS'_moderator'
p475
Nsg289
S'r/science/'
p476
sbsS'selftext_html'
p477
NsS'selftext'
p478
V
sS'likes'
p479
NsS'suggested_sort'
p480
Vconfidence
p481
sS'user_reports'
p482
(lp483
sS'secure_media'
p484
NsS'is_reddit_media_domain'
p485
I00
sS'link_flair_text'
p486
VMedicine
p487
sg347
V5jd2fq
p488
sS'banned_at_utc'
p489
NsS'view_count'
p490
NsS'archived'
p491
I01
sS'clicked'
p492
I00
sS'report_reasons'
p493
NsS'title'
p494
VSunlight energizes T cells that play a central role in human immunity through a mechanism separate from Vitamin D production, potentially explaining why sunlight is associated with positive health outcomes including reduced incidences of autoimmune diseases.
p495
sS'num_crossposts'
p496
I0
sS'saved'
p497
I00
sS'mod_reports'
p498
(lp499
sS'can_mod_post'
p500
I00
sS'is_crosspostable'
p501
I00
sS'pinned'
p502
I00
sS'comment_limit'
p503
I2048
sS'score'
p504
I4177
sS'approved_by'
p505
Nsg450
I00
sS'hidden'
p506
I00
sS'preview'
p507
(dp508
Vimages
p509
(lp510
(dp511
Vsource
p512
(dp513
Vurl
p514
Vhttps://i.redditmedia.com/kGfjYOep1dB06qyXQv_VluVqIpmehy2VZNAZbcFiMMY.jpg?s=31b513a66142f8704c188ce444c6ce5b
p515
sVwidth
p516
I655
sVheight
p517
I685
ssVresolutions
p518
(lp519
(dp520
Vurl
p521
Vhttps://i.redditmedia.com/kGfjYOep1dB06qyXQv_VluVqIpmehy2VZNAZbcFiMMY.jpg?fit=crop&crop=faces%2Centropy&arh=2&w=108&s=4b6f6ecc4dd4df26f388d4e96a4e5696
p522
sVwidth
p523
I108
sVheight
p524
I112
sa(dp525
Vurl
p526
Vhttps://i.redditmedia.com/kGfjYOep1dB06qyXQv_VluVqIpmehy2VZNAZbcFiMMY.jpg?fit=crop&crop=faces%2Centropy&arh=2&w=216&s=83267b893f3161e4722b85482dc1e0ca
p527
sVwidth
p528
I216
sVheight
p529
I225
sa(dp530
Vurl
p531
Vhttps://i.redditmedia.com/kGfjYOep1dB06qyXQv_VluVqIpmehy2VZNAZbcFiMMY.jpg?fit=crop&crop=faces%2Centropy&arh=2&w=320&s=a0f8b5e16ed8770ecc83edfb5d0aa1ad
p532
sVwidth
p533
I320
sVheight
p534
I334
sa(dp535
Vurl
p536
Vhttps://i.redditmedia.com/kGfjYOep1dB06qyXQv_VluVqIpmehy2VZNAZbcFiMMY.jpg?fit=crop&crop=faces%2Centropy&arh=2&w=640&s=dfc2af029ce7eca62d2d25b4cafaa828
p537
sVwidth
p538
I640
sVheight
p539
I669
sasVvariants
p540
(dp541
sVid
p542
VKV9GZsADwgYtynH9qRJnuiVeikPDnmKmeiHOBS25-kM
p543
sasVenabled
p544
I00
ssS'thumbnail'
p545
Vhttps://b.thumbs.redditmedia.com/l4oOUx5JuZ4wewApoaVKkNkvQLhTdLdyKSjE9FXbYEg.jpg
p546
sS'subreddit_id'
p547
Vt5_mouw
p548
sS'whitelist_status'
p549
Vall_ads
p550
sS'edited'
p551
I00
sS'link_flair_css_class'
p552
Vmed
p553
sS'author_flair_css_class'
p554
Vmed   reward3
p555
sS'contest_mode'
p556
I00
sS'gilded'
p557
I0
sS'downs'
p558
I0
sS'brand_safe'
p559
I01
sS'secure_media_embed'
p560
(dp561
sS'removal_reason'
p562
NsS'post_hint'
p563
Vlink
p564
sS'stickied'
p565
I00
sg35
g37
sS'can_gild'
p566
I01
sS'thumbnail_height'
p567
I140
sS'parent_whitelist_status'
p568
Vall_ads
p569
sg104
Vt3_5jd2fq
p570
sg474
NsS'spoiler'
p571
I00
sS'permalink'
p572
V/r/science/comments/5jd2fq/sunlight_energizes_t_cells_that_play_a_central/
p573
sS'subreddit_type'
p574
Vpublic
p575
sS'locked'
p576
I00
sS'hide_score'
p577
I00
sg465
F1482266573
sS'url'
p578
Vhttp://www.nature.com/articles/srep39479
p579
sS'author_flair_text'
p580
VMD-PhD-MBA | Clinical Professor/Medicine
p581
sS'quarantine'
p582
I00
sS'author'
p583
g1
(g254
g3
NtRp584
(dp585
g104
Vmvea
p586
sg27
I00
sg11
(dp587
sg344
I01
sg466
Nsg35
g37
sg289
S'user/mvea/'
p588
sbsg468
F1482237773
sS'subreddit_name_prefixed'
p589
Vr/science
p590
sS'ups'
p591
I4177
sg34
NsS'media'
p592
NsS'article_text'
p593
VBlue light increases [Ca2+] in T cells\u000a\u000aWe observed that blue-light irradiation of Jurkat T cells triggers an increase in intracellular [Ca2+] as measured by Fluo4 fluorescence (Fig. 1a and b, Supplementary Movies 1 and 2). The Ca2+ responses decreased after recovery in dark (20 min), after which cells could be re-stimulated by light (Fig. 1b and c). The responses were not due to photosensitization of Fluo4 since a blue-light pulse produced a similar effect when Ca2+ was measured using Rhodamine-2 with green light excitation (Fig. 1d). A cumulative activation plot shows that blue light (17 mW cm2) increased [Ca2+] in ~90% of Jurkat T cells with a time for half-maximal activation (T 1/2 ) of 38 seconds (Fig. 1e). We observed a similar response in human and murine CD3+ T cells that had been previously activated by plate-bound anti-CD3 antibody or Concavalin A treatment (Fig. 1e). In contrast, un-stimulated T cells exhibited a greatly diminished light sensitivity. Further, light had no effect on murine, bone-marrow derived dendritic cells nor cultured sensory DRG neurons (Fig. 1e).\u000a\u000aFigure 1: Blue light increases intracellular [Ca2+] in T cells. (a) Phase (561 nm) and Fluo-4 fluorescence (488 nm, average 2.7 mW cm2, 37 C) images of a Jurkat cell show light-induced increase in intracellular [Ca2+] followed by extension of lamellipodia. Scale bar = 10 m. (b) Representative traces of Fluo-4 fluorescence (F/F 0 ) in Jurkat cells during irradiation with 20 mW cm2 blue light (480  15 nm) and after 20 minutes recovery (in dark). (c) Mean Fluo-4 fluorescence during blue-light irradiation (20 mW cm2) and recovery in dark; n = 20. (d) Brief blue-light stimulation (27 mW cm2, 20 s) increases Ca2+ measured by Rhod-2 fluorescence (excitation 540.5  12.5 nm, 3 mW cm2, n = 10 cells) (e) Comparison of light sensitivity in T cells (blue light, 17 mW cm2, 31 C). Plot shows the cumulative% of cells activated (>20% change from baseline) by continuous blue-light irradiation measured from 2 s bins (n = 3050 cells per group). Smooth lines are best fits to a Hill function used to obtain the time for half-maximal activation (T 1/2 ); Jurkat (38 s), Con A-stimulated human CD3+ (59 s), Con A-stimulated mouse CD3+ (66 s) cells, un-stimulated mouse lymph node CD3+ cells, mouse bone-marrow derived dendritic cells and DRG neurons (no response). Full size image\u000a\u000aIrradiance and spectral dependence of T-cell photosignaling\u000a\u000aFigure 2ac show that the latency for light evoked responses depended on the irradiance. At low intensities (<6.5 mW cm2 or 1.5  1016 photons s1 cm2) the T 1/2 was directly proportional to the photon fluence rate (Fig. 2c). At higher irradiances the T 1/2 approached saturation that may reflect a dead time in the signaling pathway. In contrast, Fig. 2d shows that the peak [Ca2+] of ~70% of a maximal ionomycin stimulus, was independent of the irradiance (1.2 to 18.8 mW cm2). This peak response was comparable to, if not greater than, the Ca2+ rise evoked during TCR-mediated signaling (Supplementary Fig. 1). These data show that the light response depends on the total number of photons rather than irradiance flux or time and this observation supports the existence of a photon-counting mechanism.\u000a\u000aFigure 2: Energy and spectral dependence of T-cell light signaling. (a) Fluo-4 fluorescence (F/F 0 ) in Jurkat cells during 90 s irradiation with 1.2, 4.7 and 18.8 mW cm2 blue light (480  15 nm). (b) Cumulative% of cells activated by continuous blue-light irradiation measured from 2 s bins (n = 3050 cells per group). Smooth lines are best fits to a Hill function used to obtain the time for half-maximal activation (T 1/2 ). (c) Plot of log T 1/2 versus log irradiance. The linear fit shows that T 1/2 is proportional to irradiance at low energy (d) Peak Fluo4 fluorescence (normalized to ionomycin, F Max ) evoked by different irradiances (220 minutes). Data are mean of 1013 cells per group. Control represents F at time zero. (e) Fraction of cells responding to varying doses of blue-light irradiation (60 s, 31 C, n = 4050 cells for each point). Half-maximal activation (EC 50 ) is 5.6  1.2  1017 photons cm2 or 232 mJ cm2. (f) Plot of EC 50 values for Ca2+ rise evoked by irradiation of different wavelengths; n = 4060 cells for each point. (g) Changes in Fluo-4 fluorescence evoked by broad-spectrum (400700 nm) irradiation. Data (3050 cells) are normalized to maximal response evoked by blue light. Smooth line shows best fit to a Hill equation with an IC 50 of 6.7  0.6 J cm2. Full size image\u000a\u000aDose-response analysis for light-induced Ca2+ revealed half-maximal blue-light activation with 232 mJ cm2 or 5.6  1.2  1017 photons cm2 (Fig. 2e). To measure the spectral sensitivity for light signaling we irradiated T cells with light of varying wavelengths between 355 and 535 nm and constructed dose-response relationships for each wavelength as in Fig. 2e. Figure 2f shows a plot of EC 50 versus wavelength (an action spectrum), and reveals peaks at ~355 nm and ~480 nm, with a sharp falloff at wavelengths greater than 510 nm. Thus, T cells exhibit discrete sensitivity to UV and visible-blue light, and their photosensitivity does not correlate with photon energy or heating. We also measured the T cell sensitivity to full-spectrum white light (400700 nm). Figure 2g shows that visible radiation activated Ca2+ levels with a half-maximal response at 6.7  0.6 J cm2. Importantly, these low doses of blue or full spectrum light were not toxic to T cells; we observed no changes in cell viability and murine splenocytes irradiated (up to 5 J cm2 white light) exhibited normal proliferation to plate bound anti-CD3 (Supplementary Fig. 2).\u000a\u000aLight generates Ca2+ signals via a Src kinase/PLC-1 pathway\u000a\u000aNext, we tested a range of pharmacologic inhibitors to explore how light sensing generated Ca2+ transients in T cells. Figure 3a shows that the broad-spectrum tyrosine kinase inhibitor, genestein, the Src tyrosine kinase inhibitor, PP2, a protein phosphatase CD45 inhibitor and the PLC inhibitor, U73122, all blocked light-evoked Ca2+-responses in Jurkat cells. During T cell receptor (TCR) signaling the Src kinases Lck and Fyn, phosphorylate several tyrosines in the CD3 zeta chain leading to the recruitment and activation of the protein kinase, ZAP-7020. We found that blue-light dose-dependently stimulated phosphorylation of Lck, the dominant Src kinase in Jurkat cells21 (Fig. 3b and c, Supplementary Fig. 3). Levels of phospho-Lck increased beginning at 50 mJ cm2 and peaked at 260 mJ cm2 and this paralleled the light-dependent increase in [Ca2+] (see Fig. 2e). Induction of phospho-Lck was completely inhibited by PP2 indicating that light causes transphosphorylation of Lck (Fig. 3b). Similarly, blue light activated phospho-Src in primary CD3+ T cells (Fig. 3d). Additionally, blue (Fig. 3e) or visible light (Supplementary Fig. 4) treatment of Jurkat cells stimulated phosphorylation of ZAP-70 in a Lck-dependent manner. PLC-1 associates with the TCR/CD3 complex and is phosphorylated downstream of activation of the Src20,22,23. Indeed, we found that light induced phosphorylation of PLC-1 at tyrosine 783 (Fig. 3f). To confirm a functional requirement for Lck and PLC-1 we measured light-evoked Ca2+ responses in Lck- and PLC-1-deficient Jurkat T cells (Fig. 3g and h). Light-induced Ca2+ increases were abolished in Lck-null cells and largely suppressed in PLC-1-deficient cells, a residual component may reflect expression of PLC-2 that can partly compensate for PLC-124. In contrast, responses were fully restored in cells stably expressing PLC-1 (Fig. 3g and h). Further, genetic disruption of TCR expression attenuated the speed and magnitude of light-evoked Ca2+ signaling (Fig. 3g and i). These data indicate that light evoked Ca2+ responses in T cells require activation of Lck tyrosine kinase coupled to PLC-1 and an intact TCR complex facilitates this process. Finally, we examined the transport pathway underlying the light-evoked Ca2+ response. Figure 3j shows that the Ca2+ rise persisted in a Ca2+-free medium indicating the mobilization of Ca2+ from internal stores. In addition, the duration of the Ca2+ rise was significantly greater in Ca2+-containing medium, suggesting a delayed component due to entry of extracellular Ca2+. Taken together, these data support the hypothesis that light stimulates a Src kinase/PLC-dependent pathway in T cells to mobilize Ca2+ and activate Ca2+ entry.\u000a\u000aFigure 3: Light activates a Lck-Phospholipase C-1 pathway. (a) Summary of Ca2+ responses evoked by blue light (4.7 mW cm2, 450 mJ cm2) in Jurkat cells pretreated (see Methods) with U73122 (500 nM), U733433 (5 M), wortmanin (1 M), genestein (100 M), PP2 (3 M), PP3 (3 M), CD45 inhibitor (1 M), ascorbic acid (10 mM), DHA (docosahexaenoic acid, 5 M), apocynin (100 M), antimycin/rotenone/oligomycin (20: 20:5 M), DPI (diphenyliodonium, 50 M) (n = 3040 cells per group in triplicate), *P < 0.001. (b and c) Blue light dose-dependently increases phosphorylation of Lck(Y394) in Jurkat cells detected with a generic pSrc (Y416) antibody (see Supplementary Fig. 3), data are mean of 3 experiments. The Src inhibitor, PP2, blocks the increase in pY394 demonstrating that light triggers trans autophosphorylation of Lck. (d) Blue light increases pSrc in murine CD3+ T cells. (e) Blue light triggers phosphorylation of ZAP-70 (Y319) in Jurkat cells. (f) White light (13.7 J cm2) stimulates tyrosine phosphorylation (Y783) of PLC-1. Note that the immunoblots are cropped and the full blots are shown in Supplementary Fig. 9. (gi) Mean changes in Fluo4 fluorescence and cumulative activation plots in response to blue light for wild-type Jurkat cells, PLC-1-deficient Jurkat T cells (Jgamma1), Jgamma1 cells stably expressing PLC-1 (JgammaWT), Lck-deficient Jurkat cells (JCam1.6) and cells lacking TCR expression (n = 40120 for each group). (j) Light-evoked Ca2+ responses in control and Ca2+-free media; n = 4050. The rising phase of responses is aligned to show the time course of decay. Full size image\u000a\u000aLight generates H 2 O 2 in T cells\u000a\u000aMammals express two major classes of photoreceptors, opsins3 and cryptochrome flavoproteins (CRY1 & CRY2)25,26. These proteins utilize retinal or flavin/pterin-based chromophores respectively, to capture photons at discrete wavelengths. We screened Jurkat T cells for expression of the identified mammalian opsin genes3 and detected transcripts for Opsin 3 (OPN3, Supplementary Fig. 5). Further, we detected expression of both CRY1 & 2 in Jurkat cells (Supplementary Fig. 6). However, disrupting expression of OPN3 or CRY1 & 2 did not affect light-evoked Ca2+ changes (Supplementary Figs 5 and 6). The action spectrum for T cells (Fig. 2f), containing peaks in the near-UV and blue wavelengths, is characteristic of riboflavin or a flavin-binding protein27. UV and very high-irradiance blue light (15 W; 2240 J cm2) can activate cellular flavin-binding oxidases, leading to the formation of H 2 O 2 28 and therefore we explored for a similar mechanism in T cells. We found that the antioxidants, ascorbic acid and docosahexaenoic acid, blocked light-evoked Ca2+ responses (Fig. 3a) supporting a role for reactive oxygen species (ROS). However, light signaling persisted in the presence of the flavin oxidase inhibitor, diphenyliodonium, or mitochondrial electron transport chain inhibitors, antimycin and rotenone (Fig. 3a), arguing against a role for flavoprotein enzymatic activity or mitochondrial respiration. To directly and selectively monitor H 2 O 2 levels we transfected Jurkat cells with the genetically-encoded H 2 O 2 reporter, HyPerRed29. We found that a low dose of blue light (300 mJ cm2, 30 mW) was sufficient to trigger H 2 O 2 production in Jurkat cells (Fig. 4a). Subsequent stimulation of these light-sensitive cells with exogenous H 2 0 2 (0.11 mM) produced little further increase in fluorescence, indicating that HyPerRed was almost completely oxidized by light-evoked signaling (Fig. 4a and b). Pretreating Jurkat cells with the anti-oxidants DHA and -carotene (Fig. 4c) blocked the light-evoked increase in HyPerRed fluorescence. Flavins are well known to undergo photoreduction accompanied by production of several forms of reactive oxygen species30. Notably reduced flavins can react with O 2 to generate H 2 O 2 31. To confirm this we measured production of H 2 0 2 from irradiation of solutions containing riboflavin or flavin adenine dinucleotide (5 M). In both cases, blue-light (600 mJ cm2) produced H 2 0 2 that was inhibited by DHA and -carotene (Supplementary Fig. 7). Taken together, our data support a mechanism by which irradiation of flavin/flavoproteins in T cells generates H 2 0 2 .\u000a\u000aFigure 4: Blue light stimulates T cell production of H 2 0 2 . (a and b) Brief, blue light irradiation (30 mW cm2) increases fluorescence of the genetically encoded H 2 0 2 sensor, HyperRed, expressed in Jurkat cells. (c) Pretreatment with DHA (20 M) or  carotene (100 M) inhibited the light-evoked increase in HyperRed fluorescence (n = 1015 cells per group). (d) H 2 0 2 (2 mM, 2 min) but not blue light, increases phosphorylation of Lck expressed in CHO or HEK293 cells. (e) Blue light (10 mW cm2, 600 mJ cm2) and H 2 0 2 (2 mM, 2 min) increase phospho-Lck and phospho-Zap-70 in Jurkat cells. Note that the immunoblots are cropped and the full blots are shown in Supplementary Fig. 9. (f) Mean changes in Fluo4 fluorescence and the% of responding Jurkat cells in response to 2 min treatment with H 2 0 2 (30 M to 1 mM) in the dark. F 0 was measured using <10 mJ cm2. (g) Proposed model for light-induced signaling in Jurkat cells; blue light photoreduces flavin that in the presence of 0 2 generates H 2 0 2 , in turn, H 2 0 2 activates Lck and downstream kinases. Red lines indicate key pharmacological or genetic inhibition steps used to support this pathway. Full size image\u000a\u000aH 2 O 2 can activate Src kinases directly by covalent modification of cysteines32,33 or indirectly by inhibiting CD45, and thereby promoting phosphorylation of Src at the positive regulatory site (Lck Y394)34,35. To confirm a direct action we transfected CHO and Hek-293 cells with Lck and measured phospho-Lck levels in response to blue light (500 mJ cm2) or exogenous H 2 O 2 (2 mM, 2 min). In both cell lines light failed to activate Lck, whereas H 2 O 2 produced a robust increase in levels of phospho-Lck (Fig. 4d). In contrast, in Jurkat cells, both blue light and H 2 O 2 strongly activated Lck and Zap-70 (Fig. 4e). Further, exogenous H 2 O 2 (301000 M, 2 min) increased intracellular [Ca2+] in Jurkat cells, predominantly by increasing the number of responsive cells (Fig. 4f, Supplementary Fig. 8), and this effect was inhibited by PP2. These data show that H 2 O 2 is sufficient to activate Lck and provide a causal nexus between blue light and activation of Ca2+ signaling. Figure 4g illustrates a putative signaling pathway with key pharmacologic and genetic interventions. In this model H 2 O 2 , generated by flavin photo-irradiation, activates Lck either directly and/or indirectly via CD45 to trigger signaling via Zap-70 and PLC-1. The precise role of CD45 is unclear since pharmacologic block of CD45 per se would also affect downstream Lck function by affecting the positive and/or negative regulatory sites Y394 and Y505 respectively34,35.\u000a\u000aLight enhances T-cell motility\u000a\u000aNext, we considered how photosensitivity might affect T-cell function. We observed that blue-light irradiation altered the morphology of T cells, inducing the extension of lamellipodia (Fig. 1a and Supplementary Movies 2 and 3). Since motile lamellipodia are associated with cell migration36 we measured effects of light on T-cell motility by tracking the movement of activated CD8+ T cells across a fibronectin-coated surface. Figure 5ac shows that low levels of blue light (120 mJ cm2) increased random T-cell motility and the peak surface area (reflecting spreading lamellipodia), an effect that persisted following irradiation. Thus, T cells exhibit photokinetic behavior. Next, we measured effects of light on chemotaxis. Figure 5d shows that irradiation with white light (15 J cm2) enhanced migration of Jurkat T cells towards the T-cell chemokine, stromal-derived factor. Light increased chemotaxis in a dose-dependent manner with a peak 100% increase observed at irradiances greater than 2 J cm2. In contrast, the same doses of light failed to stimulate chemotaxis in Lck-null Jurkat cells (Fig. 5d) confirming a requirement for Src kinase signaling. Next, we asked whether exogenous H 2 0 2 could mimic the effects of light. Figure 5e shows that H 2 0 2 dose-dependently increased chemotaxis in Jurkat cells with 100 M producing an effect equivalent to that of blue-light irradiation. Again, Lck-null cells were resistant to the actions of H 2 0 2 and light (Fig. 5e). Finally, we found that treating wild-type Jurkat cells with abscorbic acid or PP2 blocked the stimulatory effects of blue light (600 mJ cm2, Fig. 5f). Taken together, these data show that H 2 0 2 , acting via Lck, is both necessary and sufficient for light-evoked stimulation of T cell motility.
p594
sS'num_comments'
p595
I112
sS'is_self'
p596
I00
sS'visited'
p597
I00
sS'num_reports'
p598
NsS'is_video'
p599
I00
sS'distinguished'
p600
Nsg27
I00
sb.