ccopy_reg
_reconstructor
p1
(cpraw.models.reddit.submission
Submission
p2
c__builtin__
object
p3
NtRp4
(dp5
S'domain'
p6
Vwashingtonpost.com
p7
sS'approved_at_utc'
p8
NsS'_comments_by_id'
p9
(dp10
sS'_info_params'
p11
(dp12
sS'banned_by'
p13
NsS'comment_sort'
p14
S'best'
p15
sS'media_embed'
p16
(dp17
sS'thumbnail_width'
p18
I140
sS'subreddit'
p19
g1
(cpraw.models.reddit.subreddit
Subreddit
p20
g3
NtRp21
(dp22
S'_wiki'
p23
NsS'display_name'
p24
Vscience
p25
sS'_stylesheet'
p26
NsS'_fetched'
p27
I00
sg11
(dp28
sS'_contributor'
p29
NsS'_banned'
p30
NsS'_muted'
p31
NsS'_quarantine'
p32
NsS'_modmail'
p33
NsS'_flair'
p34
NsS'_reddit'
p35
g1
(cpraw.reddit
Reddit
p36
g3
NtRp37
(dp38
S'_core'
p39
g1
(cprawcore.sessions
Session
p40
g3
NtRp41
(dp42
S'_authorizer'
p43
g1
(cprawcore.auth
ScriptAuthorizer
p44
g3
NtRp45
(dp46
S'scopes'
p47
c__builtin__
set
p48
((lp49
V*
atRp50
sS'_username'
p51
VJS_Research
p52
sS'access_token'
p53
VoR7ueivAi-yeTmPh7RRrUoU-sm8
p54
sS'_authenticator'
p55
g1
(cprawcore.auth
TrustedAuthenticator
p56
g3
NtRp57
(dp58
S'client_secret'
p59
VBgciYaBpyH8ef21jXMyJjn_DARE
p60
sS'redirect_uri'
p61
g1
(cpraw.config
_NotSet
p62
g3
NtRp63
sS'client_id'
p64
VwU1FwN1ugWt7eQ
p65
sS'_requestor'
p66
g1
(cprawcore.requestor
Requestor
p67
g3
NtRp68
(dp69
S'_http'
p70
g1
(crequests.sessions
Session
p71
g3
NtRp72
(dp73
S'cookies'
p74
g1
(crequests.cookies
RequestsCookieJar
p75
g3
NtRp76
(dp77
S'_now'
p78
I1510895610
sS'_policy'
p79
(icookielib
DefaultCookiePolicy
p80
(dp81
S'strict_rfc2965_unverifiable'
p82
I01
sS'strict_ns_domain'
p83
I0
sS'_allowed_domains'
p84
NsS'rfc2109_as_netscape'
p85
NsS'rfc2965'
p86
I00
sS'strict_domain'
p87
I00
sg78
I1510895610
sS'strict_ns_set_path'
p88
I00
sS'strict_ns_unverifiable'
p89
I00
sS'strict_ns_set_initial_dollar'
p90
I00
sS'hide_cookie2'
p91
I00
sS'_blocked_domains'
p92
(tsS'netscape'
p93
I01
sbsS'_cookies'
p94
(dp95
S'.reddit.com'
p96
(dp97
S'/'
(dp98
S'loid'
p99
(icookielib
Cookie
p100
(dp101
S'comment'
p102
Nsg6
S'.reddit.com'
p103
sS'name'
p104
g99
sS'domain_initial_dot'
p105
I00
sS'expires'
p106
I1573967423
sS'value'
p107
S'00000000000e7dsf19.2.1505716153623.Z0FBQUFBQmFEbTlBU1EwbzUyZ293WTJBdDJaamk2V2s2dzRJQmlEV3MxUTQxN212M2ZKZjlhN0xrRnVlSUZoODZzUHZqeEdpdzZ1aFAyT0ZVdUQtRm85dzNpcDNfeG0wbi1iZGs3OWF6WXg4RzNqejI0SV9lUllITXBkUGF4LU14ejUzMWxtLTBHT2Q'
p108
sS'domain_specified'
p109
I01
sS'_rest'
p110
(dp111
sS'version'
p112
I0
sS'port_specified'
p113
I00
sS'rfc2109'
p114
I00
sS'discard'
p115
I00
sS'path_specified'
p116
I01
sS'path'
p117
S'/'
sS'port'
p118
NsS'comment_url'
p119
NsS'secure'
p120
I01
sbsS'session_tracker'
p121
(icookielib
Cookie
p122
(dp123
g102
Nsg6
S'.reddit.com'
p124
sg104
S'session_tracker'
p125
sg105
I00
sg106
I1510902809
sg107
S'crQiBtrEVfCCgtFogt.0.1510895610205.Z0FBQUFBQmFEbV82eHgzMEcwQ0hsRTIwSDVVRTJYcUJCVHJVbkh2a0V2ZnlkWS04a2ZnVkExdW5JQmtxdHN2Z005LXZ1RzZQVGNlSGVPU1JQNmwyMkdxdG9LWGlwNVdKRlQxT0JmTlBxUzludEQtblBxeWViNWNUeEZMSzAxWkVXT1E4TkY3bDl4dDU'
p126
sg109
I01
sg110
(dp127
sg112
I0
sg113
I00
sg114
I00
sg115
I00
sg116
I01
sg117
S'/'
sg118
Nsg119
Nsg120
I01
sbsS'edgebucket'
p128
(icookielib
Cookie
p129
(dp130
g102
Nsg6
S'.reddit.com'
p131
sg104
g128
sg105
I00
sg106
I1573967422
sg107
S'wR7VzApWCkJPkoMBgW'
p132
sg109
I01
sg110
(dp133
sg112
I0
sg113
I00
sg114
I00
sg115
I00
sg116
I01
sg117
S'/'
sg118
Nsg119
Nsg120
I01
sbssssbsS'stream'
p134
I00
sS'hooks'
p135
(dp136
S'response'
p137
(lp138
ssS'auth'
p139
NsS'trust_env'
p140
I01
sS'headers'
p141
g1
(crequests.structures
CaseInsensitiveDict
p142
g3
NtRp143
(dp144
S'_store'
p145
curllib3.packages.ordered_dict
OrderedDict
p146
((lp147
(lp148
S'connection'
p149
a(S'Connection'
p150
S'keep-alive'
p151
tp152
aa(lp153
S'accept-encoding'
p154
a(S'Accept-Encoding'
p155
S'gzip, deflate'
tp156
aa(lp157
S'accept'
p158
a(S'Accept'
p159
S'*/*'
p160
tp161
aa(lp162
S'user-agent'
p163
a(S'User-Agent'
p164
S'News Article Downloader /u/JS_Research PRAW/5.2.0 prawcore/0.12.0'
tp165
aatRp166
sbsS'cert'
p167
NsS'params'
p168
(dp169
sS'prefetch'
p170
NsS'verify'
p171
I01
sS'proxies'
p172
(dp173
sS'adapters'
p174
g146
((lp175
(lp176
S'https://'
p177
ag1
(crequests.adapters
HTTPAdapter
p178
g3
NtRp179
(dp180
S'_pool_block'
p181
I00
sS'_pool_maxsize'
p182
I10
sS'max_retries'
p183
g1
(curllib3.util.retry
Retry
p184
g3
NtRp185
(dp186
S'status'
p187
NsS'redirect'
p188
NsS'read'
p189
I00
sS'backoff_factor'
p190
I0
sS'respect_retry_after_header'
p191
I01
sS'history'
p192
(tsS'raise_on_status'
p193
I01
sS'connect'
p194
NsS'status_forcelist'
p195
g48
((ltRp196
sS'total'
p197
I0
sS'raise_on_redirect'
p198
I01
sS'method_whitelist'
p199
c__builtin__
frozenset
p200
((lp201
S'HEAD'
p202
aS'TRACE'
p203
aS'GET'
p204
aS'PUT'
p205
aS'OPTIONS'
p206
aS'DELETE'
p207
atRp208
sbsS'config'
p209
(dp210
sS'_pool_connections'
p211
I10
sbaa(lp212
S'http://'
p213
ag1
(g178
g3
NtRp214
(dp215
g181
I00
sg182
I10
sg183
g1
(g184
g3
NtRp216
(dp217
g187
Nsg188
Nsg189
I00
sg190
I0
sg191
I01
sg192
(tsg193
I01
sg194
Nsg195
g48
((ltRp218
sg197
I0
sg198
I01
sg199
g208
sbsg209
(dp219
sg211
I10
sbaatRp220
sS'max_redirects'
p221
I30
sbsS'reddit_url'
p222
S'https://www.reddit.com'
p223
sS'oauth_url'
p224
S'https://oauth.reddit.com'
p225
sbsbsS'_password'
p226
VXPlstazuMC0CaX1Njhf0ny5u^nMD5t*P73O
p227
sS'_expiration_timestamp'
p228
F1510899012.1773059
sS'refresh_token'
p229
NsbsS'_rate_limiter'
p230
g1
(cprawcore.rate_limit
RateLimiter
p231
g3
NtRp232
(dp233
S'used'
p234
I114
sS'remaining'
p235
F486
sS'next_request_timestamp'
p236
F1510895611.0569813
sS'reset_timestamp'
p237
F1510896000.2545121
sbsbsS'_objector'
p238
g1
(cpraw.objector
Objector
p239
g3
NtRp240
(dp241
g35
g37
sS'parsers'
p242
(dp243
S'LiveUpdate'
p244
cpraw.models.reddit.live
LiveUpdate
p245
sS'ModmailConversation'
p246
cpraw.models.reddit.modmail
ModmailConversation
p247
sS'ModmailMessage'
p248
cpraw.models.reddit.modmail
ModmailMessage
p249
sS't4'
p250
cpraw.models.reddit.message
Message
p251
sS't5'
p252
g20
sS't2'
p253
cpraw.models.reddit.redditor
Redditor
p254
sS't3'
p255
g2
sS't1'
p256
cpraw.models.reddit.comment
Comment
p257
sS'UserList'
p258
cpraw.models.list.redditor
RedditorList
p259
sS'stylesheet'
p260
cpraw.models.stylesheet
Stylesheet
p261
sS'LabeledMulti'
p262
cpraw.models.reddit.multi
Multireddit
p263
sS'Listing'
p264
cpraw.models.listing.listing
Listing
p265
sS'modaction'
p266
cpraw.models.modaction
ModAction
p267
sS'LiveUpdateEvent'
p268
cpraw.models.reddit.live
LiveThread
p269
sS'ModmailAction'
p270
cpraw.models.reddit.modmail
ModmailAction
p271
sS'more'
p272
cpraw.models.reddit.more
MoreComments
p273
ssbsS'subreddits'
p274
g1
(cpraw.models.subreddits
Subreddits
p275
g3
NtRp276
(dp277
g35
g37
sbsg139
g1
(cpraw.models.auth
Auth
p278
g3
NtRp279
(dp280
g35
g37
sbsg19
g1
(cpraw.models.helpers
SubredditHelper
p281
g3
NtRp282
(dp283
g35
g37
sbsS'front'
p284
g1
(cpraw.models.front
Front
p285
g3
NtRp286
(dp287
g35
g37
sS'_comments'
p288
NsS'_path'
p289
S'/'
sbsS'live'
p290
g1
(cpraw.models.helpers
LiveHelper
p291
g3
NtRp292
(dp293
g35
g37
sbsS'inbox'
p294
g1
(cpraw.models.inbox
Inbox
p295
g3
NtRp296
(dp297
g35
g37
sbsS'multireddit'
p298
g1
(cpraw.models.helpers
MultiredditHelper
p299
g3
NtRp300
(dp301
g35
g37
sbsS'_unique_counter'
p302
I0
sg209
g1
(cpraw.config
Config
p303
g3
NtRp304
(dp305
S'username'
p306
g52
sg222
g223
sS'_settings'
p307
(dp308
g306
g52
sg59
g60
sS'password'
p309
g227
sS'user_agent'
p310
VNews Article Downloader /u/JS_Research
p311
sg64
g65
ssS'check_for_updates'
p312
I01
sS'custom'
p313
(dp314
sg61
g63
sg310
g311
sg64
g65
sS'_short_url'
p315
S'https://redd.it'
p316
sg59
g60
sg224
g225
sg309
g227
sS'kinds'
p317
(dp318
g102
g256
sS'message'
p319
g250
sS'redditor'
p320
g253
sS'submission'
p321
g255
sg19
g252
ssg229
g63
sbsS'_read_only_core'
p322
g1
(g40
g3
NtRp323
(dp324
g43
g1
(cprawcore.auth
ReadOnlyAuthorizer
p325
g3
NtRp326
(dp327
g53
Nsg47
Nsg228
Nsg229
Nsg55
g57
sbsg230
g1
(g231
g3
NtRp328
(dp329
g234
Nsg235
Nsg236
Nsg237
NsbsbsS'_authorized_core'
p330
g41
sS'user'
p331
g1
(cpraw.models.user
User
p332
g3
NtRp333
(dp334
g35
g37
sS'_me'
p335
g1
(g254
g3
NtRp336
(dp337
S'is_employee'
p338
I00
sS'has_visited_new_profile'
p339
I00
sS'pref_no_profanity'
p340
I01
sg11
(dp341
sS'is_suspended'
p342
I00
sS'pref_geopopular'
p343
V
sS'_listing_use_sort'
p344
I01
sg19
NsS'is_sponsor'
p345
I00
sS'gold_expiration'
p346
NsS'id'
p347
Ve7dsf19
p348
sS'suspension_expiration_utc'
p349
NsS'verified'
p350
I00
sg27
I00
sS'new_modmail_exists'
p351
NsS'features'
p352
(dp353
Vsearch_public_traffic
p354
(dp355
Vowner
p356
Vsearch
p357
sVvariant
p358
Vnew_search_11
p359
sVexperiment_id
p360
I212
ssVdo_not_track
p361
I01
sVgeopopular_au_holdout
p362
(dp363
Vowner
p364
Vrelevance
p365
sVvariant
p366
Vcontrol_2
p367
sVexperiment_id
p368
I206
ssVshow_amp_link
p369
I01
sVlive_happening_now
p370
I01
sVadserver_reporting
p371
I01
sVgeopopular
p372
I01
sVchat_rollout
p373
I01
sVads_auto_refund
p374
I01
sVlisting_service_rampup
p375
I01
sVmobile_web_targeting
p376
I01
sVdefault_srs_holdout
p377
(dp378
Vowner
p379
Vrelevance
p380
sVvariant
p381
Vtutorial
p382
sVexperiment_id
p383
I171
ssVadzerk_do_not_track
p384
I01
sVusers_listing
p385
I01
sVshow_user_sr_name
p386
I01
sVwhitelisted_pms
p387
I01
sVpersonalization_prefs
p388
I01
sVupgrade_cookies
p389
I01
sVnew_overview
p390
I01
sVnew_report_flow
p391
I01
sVblock_user_by_report
p392
I01
sVadblock_test
p393
I01
sVlegacy_search_pref
p394
I01
sVorangereds_as_emails
p395
I01
sVmweb_xpromo_modal_listing_click_daily_dismissible_ios
p396
I01
sVexpando_events
p397
I01
sVeu_cookie_policy
p398
I01
sVprogrammatic_ads
p399
I01
sVforce_https
p400
I01
sVinbox_push
p401
I01
sVpost_to_profile_beta
p402
I01
sVcrossposting_ga
p403
I01
sVoutbound_clicktracking
p404
I01
sVnew_loggedin_cache_policy
p405
I01
sVshow_secret_santa
p406
I01
sVhttps_redirect
p407
I01
sVsearch_dark_traffic
p408
I01
sVmweb_xpromo_interstitial_comments_ios
p409
I01
sVpause_ads
p410
I01
sVgive_hsts_grants
p411
I01
sVshow_recommended_link
p412
I01
sVmobile_native_banner
p413
I01
sVmweb_xpromo_interstitial_comments_android
p414
I01
sVads_auction
p415
I01
sVgeopopular_se_holdout
p416
(dp417
Vowner
p418
Vrelevance
p419
sVvariant
p420
Vcontrol_2
p421
sVexperiment_id
p422
I224
ssVscreenview_events
p423
I01
sVsubreddit_recommendations_carousel_holdout
p424
(dp425
Vowner
p426
Vrelevance
p427
sVvariant
p428
Vcontrol_2
p429
sVexperiment_id
p430
I239
ssVnew_report_dialog
p431
I01
sVmoat_tracking
p432
I01
sVsubreddit_rules
p433
I01
sVadzerk_reporting_2
p434
I01
sVactivity_service_write
p435
I01
sVads_auto_extend
p436
I01
sVinterest_targeting
p437
I01
sVpost_embed
p438
I01
sVmweb_xpromo_ad_loading_android
p439
(dp440
Vowner
p441
Vchannels
p442
sVvariant
p443
Vcontrol_1
p444
sVexperiment_id
p445
I187
ssVscroll_events
p446
I01
sVmweb_xpromo_modal_listing_click_daily_dismissible_android
p447
I01
sVcrossposting_recent
p448
I01
sVactivity_service_read
p449
I01
ssS'over_18'
p450
I00
sS'is_gold'
p451
I00
sS'is_mod'
p452
I00
sS'has_verified_email'
p453
I00
sS'in_redesign_beta'
p454
I00
sS'has_mod_mail'
p455
I00
sS'oauth_client_id'
p456
VwU1FwN1ugWt7eQ
p457
sS'hide_from_robots'
p458
I00
sS'link_karma'
p459
I1
sg35
g37
sS'inbox_count'
p460
I1
sS'pref_top_karma_subreddits'
p461
NsS'has_mail'
p462
I01
sS'pref_show_snoovatar'
p463
I00
sg104
VJS_Research
p464
sS'created'
p465
F1505744953
sS'_stream'
p466
NsS'gold_creddits'
p467
I0
sS'created_utc'
p468
F1505716153
sS'in_beta'
p469
I00
sS'comment_karma'
p470
I0
sS'has_subscribed'
p471
I00
sg289
S'user/JS_Research/'
p472
sbsbsbsS'_filters'
p473
Nsg466
Nsg288
NsS'_mod'
p474
NsS'_moderator'
p475
Nsg289
S'r/science/'
p476
sbsS'selftext_html'
p477
NsS'selftext'
p478
V
sS'likes'
p479
NsS'suggested_sort'
p480
Vconfidence
p481
sS'user_reports'
p482
(lp483
sS'secure_media'
p484
NsS'is_reddit_media_domain'
p485
I00
sS'link_flair_text'
p486
VMedicine
p487
sg347
V6r5lui
p488
sS'banned_at_utc'
p489
NsS'view_count'
p490
NsS'archived'
p491
I00
sS'clicked'
p492
I00
sS'report_reasons'
p493
NsS'title'
p494
VFirst human embryo editing experiment in U.S. \u2018corrects\u2019 gene for heart condition
p495
sS'num_crossposts'
p496
I0
sS'saved'
p497
I00
sS'mod_reports'
p498
(lp499
sS'can_mod_post'
p500
I00
sS'is_crosspostable'
p501
I00
sS'pinned'
p502
I00
sS'comment_limit'
p503
I2048
sS'score'
p504
I21967
sS'approved_by'
p505
Nsg450
I00
sS'hidden'
p506
I00
sS'preview'
p507
(dp508
Vimages
p509
(lp510
(dp511
Vsource
p512
(dp513
Vurl
p514
Vhttps://i.redditmedia.com/ZBt3zOvHWAcPzSOfszlqCXV4p44QcUyhPy59ZdstfA8.jpg?s=16b69725a6a306788c3325bd277fbd41
p515
sVwidth
p516
I1484
sVheight
p517
I1484
ssVresolutions
p518
(lp519
(dp520
Vurl
p521
Vhttps://i.redditmedia.com/ZBt3zOvHWAcPzSOfszlqCXV4p44QcUyhPy59ZdstfA8.jpg?fit=crop&crop=faces%2Centropy&arh=2&w=108&s=cd855440afa203f00f4fd2149ecad948
p522
sVwidth
p523
I108
sVheight
p524
I108
sa(dp525
Vurl
p526
Vhttps://i.redditmedia.com/ZBt3zOvHWAcPzSOfszlqCXV4p44QcUyhPy59ZdstfA8.jpg?fit=crop&crop=faces%2Centropy&arh=2&w=216&s=8c4e42b2110e9f28a121761aef93b5b5
p527
sVwidth
p528
I216
sVheight
p529
I216
sa(dp530
Vurl
p531
Vhttps://i.redditmedia.com/ZBt3zOvHWAcPzSOfszlqCXV4p44QcUyhPy59ZdstfA8.jpg?fit=crop&crop=faces%2Centropy&arh=2&w=320&s=39fd7f4a9b433fc9d8bc13d92d4c1be7
p532
sVwidth
p533
I320
sVheight
p534
I320
sa(dp535
Vurl
p536
Vhttps://i.redditmedia.com/ZBt3zOvHWAcPzSOfszlqCXV4p44QcUyhPy59ZdstfA8.jpg?fit=crop&crop=faces%2Centropy&arh=2&w=640&s=afc8473876fd5e111d868c1bab1668c9
p537
sVwidth
p538
I640
sVheight
p539
I640
sa(dp540
Vurl
p541
Vhttps://i.redditmedia.com/ZBt3zOvHWAcPzSOfszlqCXV4p44QcUyhPy59ZdstfA8.jpg?fit=crop&crop=faces%2Centropy&arh=2&w=960&s=83f555a0077d69254e36d80e631e5a97
p542
sVwidth
p543
I960
sVheight
p544
I960
sa(dp545
Vurl
p546
Vhttps://i.redditmedia.com/ZBt3zOvHWAcPzSOfszlqCXV4p44QcUyhPy59ZdstfA8.jpg?fit=crop&crop=faces%2Centropy&arh=2&w=1080&s=5f41cda69d8a34d9ef79bbe48dc783d8
p547
sVwidth
p548
I1080
sVheight
p549
I1080
sasVvariants
p550
(dp551
sVid
p552
V9L_whdsOwhqvCLQqi8m987iqb_jY3P4uk87LaOb9UiU
p553
sasVenabled
p554
I00
ssS'thumbnail'
p555
Vhttps://b.thumbs.redditmedia.com/ti7rkne-5sZ714U3WjqrLsu0qEOw8ag8vf6CHC9rkEA.jpg
p556
sS'subreddit_id'
p557
Vt5_mouw
p558
sS'whitelist_status'
p559
Vall_ads
p560
sS'edited'
p561
I00
sS'link_flair_css_class'
p562
Vmed
p563
sS'author_flair_css_class'
p564
NsS'contest_mode'
p565
I00
sS'gilded'
p566
I0
sS'downs'
p567
I0
sS'brand_safe'
p568
I01
sS'secure_media_embed'
p569
(dp570
sS'removal_reason'
p571
NsS'post_hint'
p572
Vlink
p573
sS'stickied'
p574
I00
sg35
g37
sS'can_gild'
p575
I01
sS'thumbnail_height'
p576
I140
sS'parent_whitelist_status'
p577
Vall_ads
p578
sg104
Vt3_6r5lui
p579
sg474
NsS'spoiler'
p580
I00
sS'permalink'
p581
V/r/science/comments/6r5lui/first_human_embryo_editing_experiment_in_us/
p582
sS'subreddit_type'
p583
Vpublic
p584
sS'locked'
p585
I00
sS'hide_score'
p586
I00
sg465
F1501722242
sS'url'
p587
Vhttps://www.washingtonpost.com/news/to-your-health/wp/2017/08/02/first-human-embryo-editing-experiment-in-u-s-corrects-gene-for-heart-condition/
p588
sS'author_flair_text'
p589
NsS'quarantine'
p590
I00
sS'author'
p591
g1
(g254
g3
NtRp592
(dp593
g104
Vtonto515
p594
sg27
I00
sg11
(dp595
sg344
I01
sg466
Nsg35
g37
sg289
S'user/tonto515/'
p596
sbsg468
F1501693442
sS'subreddit_name_prefixed'
p597
Vr/science
p598
sS'ups'
p599
I21967
sg34
NsS'media'
p600
NsS'article_text'
p601
V\u000a\u000aIllustration of a human embryo. (iStock)\u000a\u000aScientists have successfully edited the DNA of human embryos to erase a heritable heart condition that is known for causing sudden death in young competitive athletes, cracking open the doors to a controversial new era in medicine.\u000a\u000aThis is the first time gene editing on human embryos has been conducted in the United States. Researchers said in interviews this week that they consider their work very basic. The embryos were allowed to grow for only a few days, and there was never any intention to implant them to create a pregnancy. But they also acknowledged that they will continue to move forward with the science, with the ultimate goal of being able to correct disease-causing genes in embryos that will develop into babies.\u000a\u000aNews of the remarkable experiment began to circulate last week, but details became public Wednesday with a paper in the journal Nature.\u000a\u000aThe experiment is the latest example of how the laboratory tool known as CRISPR (or Clustered Regularly Interspaced Short Palindromic Repeats), a type of molecular scissors, is pushing the boundaries of our ability to manipulate life, and it has been received with both excitement and horror.\u000a\u000aThe most recent work is particularly sensitive because it involves changes to the germ line  that is, genes that could be passed on to future generations. The United States forbids the use of federal funds for embryo research, and the Food and Drug Administration is prohibited from considering any clinical trials involving genetic modifications that can be inherited. A report from the National Academies of Sciences, Engineering and Medicine in February urged caution in applying CRISPR to human germ-line editing but laid out conditions by which research should continue. The new study abides by those recommendations.\u000a\u000aThis animation depicts the CRISPR-Cas9 method for genome editing  a powerful new technology with many applications in biomedical research, including the potential to treat human genetic disease or provide cosmetic enhancements. (Feng Zhang/McGovern Institute for Brain Research/MIT)\u000a\u000aShoukhrat Mitalipov, one of the lead authors of the paper and a researcher at Oregon Health & Science University, said that he is conscious of the need for a larger ethical and legal discussion about genetic modification of humans but that his team's work is justified because it involves correcting genes rather than changing them.\u000a\u000aReally we didnt edit anything. Neither did we modify anything, Mitalipov said. Our program is toward correcting mutant genes.\u000a\u000aAlta Charo, a bioethicist at the University of Wisconsin at Madison who is co-chair of the National Academies committee that looked at gene editing, said that concerns about the work that have been circulating in recent days are overblown.\u000a\u000aWhat this represents is a fascinating, important and rather impressive incremental step toward learning how to edit embryos safely and precisely, she said. However, no matter what anybody says, this is not the dawn of the era of the designer baby. She said that characteristics that some parents might desire, such as intelligence and athleticism, are influenced by multiple genes and that researchers don't understand all the components of how such characteristics are inherited, much less have the ability to redesign them.\u000a\u000aThe research involved eggs from 12 healthy female donors and sperm from a male volunteer who carries the MYBPC3 gene, which causes hypertrophic cardiomyopathy. HCM is a disease that causes an abnormal thickening of the heart muscle but can cause no symptoms and remain undetected until it causes sudden cardiac death. There's no way to prevent or cure it, and it affects 1 in 500 people worldwide.\u000a\u000aAround the time the sperm was injected into the eggs, researchers snipped out the gene that causes the disease. The result was far more successful than the researchers expected: As the embryo's cells began to divide and multiply, a huge number appeared to be repairing themselves by using the normal, non-mutated copy of the gene from the women's genetic material. In all, they saw that about 72 percent were corrected, a very high number. Researchers also noticed that there didn't seem to be any off-target changes in the DNA, which has been a major safety concern of gene-editing research.\u000a\u000aMitalipov said he hoped the technique could one day be applied to a wide variety of genetic diseases and that one of the team's next targets may be the BRCA gene mutation, which is associated with breast cancer.\u000a\u000aThe first published work involving human embryos, reported in 2015, was done in China and targeted a gene that leads to the blood disorder beta thalassemia. But those embryos were abnormal and nonviable, and there were far fewer than the number used in the U.S. study.\u000a\u000aJuan Carlos Izpisua Belmonte, a researcher at the Salk Institute who is also a co-author on the new study, said that there are many advantages to treating an embryo rather than a child or an adult. When dealing with an embryo in its earliest stages, only a few cells are involved, while in a more mature human being there are trillions of cells in the body and potentially millions that must be corrected to eradicate traces of a disease.\u000a\u000aIzpisua Belmonte said that even if the technology is perfected, it could deal with only a small subset of human diseases.\u000a\u000aI dont want to be negative with our own discoveries, but it is important to inform the public of what this means, he said. In my opinion the percentage of people that would benefit from this at the current way the world is rather small. For the process to make a difference, the child would have to be born through in vitro fertilization or IVF and the parents would have to know the child has the gene for a disease to get it changed. But the vast majority of children are conceived the natural way, and this correction technology would not work in utero.\u000a\u000aFor years, some policymakers, historians and scientists have been calling for a voluntary moratorium on the modification of the DNA of human reproductive cells. The most prominent expression of concern came in the form of a 2015 letter signed by CRISPR co-inventor Jennifer Doudna, Nobel Laureate David Baltimore and 16 other prominent scientists. They warned that eliminating a genetic disease could have unintended consequences  on human genetics, society and even the environment  far into the future.\u000a\u000aOn Wednesday, Marcy Darnovsky, executive director of the Center for Genetics and Society, warned that the O.H.S.U. research would result in fertility clinics offering  genetic upgrades to those able to afford them.\u000a\u000aOnce those commercial dynamics kick in, we could all too easily find ourselves in a world where some peoples children are considered biologically superior to the rest of us, she said in a statement. We need to ask ourselves whether we want to add that new kind of excuse for extreme social disparities to the ones we already tolerate.\u000a\u000aResearchers who worked on the heart-condition experiment appear to have differing views on where their work is headed.\u000a\u000aPaula Amato, a reproductive endocrinologist with O.H.S.U., was excited about the idea of being able to edit out diseases before birth. She said that while pre-implantation genetic screening of embryos is now available, it isn't perfect. She talked about how one of her patients went through three cycles of in vitro fertilization but all the eggs that were harvested had the gene mutation that causes diseases.\u000a\u000aWith gene correction technology, Amato said, we could have rescued some of those embryos.\u000a\u000aBut Izpisua Belmonte said he is focusing on using the findings from this study to further research into gene modifications during a pregnancy or after birth into adulthood.\u000a\u000aI feel that the practical thing to do is deal with the diseases people have, not with the disease they may have, he said.\u000a\u000aMitalipov said he hopes regulators will provide more guidance on what should or should not be allowed.\u000a\u000aOtherwise, he said, this technology will be shifted to unregulated areas, which shouldnt be happening.\u000a\u000a1 of 21 Full Screen Autoplay Close Skip Ad  See the winners of the 2017 Wellcome Image Awards View Photos The Wellcome Image Awards are the British medical research charitys most eye-catching celebration of science, medicine and life. From photography and illustration to super-resolution microscopy and medical scans, the images use a variety of methods to capture the imagination and bring complex concepts to life.ife. Caption The Wellcome Image Awards are the British medical research charitys most eye-catching celebration of science, medicine and life. From photography and illustration to super-resolution microscopy and medical scans, the images use a variety of methods to capture the imagination and bring complex concepts to life.ife. Overall Winner; Stickman  the Vicissitudes of Crohns This image is part of a series called Stickman  the Vicissitudes of Crohns. Its images are based around the character Stickman, a proxy or alter ego of the artist, who suffers from Crohns disease. He is made of sticks rather than bones and references the associated symptoms of weight loss, the bodys fragility following a flare-up, and the abrupt, transformative nature of Crohns disease. Spooky Pooka/Wellcome Images Buy Photo Wait 1 second to continue.\u000a\u000aThis story has been updated.\u000a\u000aRead more:\u000a\u000aA new CRISPR breakthrough could lead to simpler, cheaper disease diagnosis\u000a\u000aScientists debate the ethics of CRISPR\u000a\u000aEthicists urge caution in applying CRISPR to humans\u000a\u000aJennifer Doudna ponders 'what it means to be human' on the frontier of gene editing
p602
sS'num_comments'
p603
I1170
sS'is_self'
p604
I00
sS'visited'
p605
I00
sS'num_reports'
p606
NsS'is_video'
p607
I00
sS'distinguished'
p608
Nsg27
I00
sb.