ccopy_reg
_reconstructor
p1
(cpraw.models.reddit.submission
Submission
p2
c__builtin__
object
p3
NtRp4
(dp5
S'domain'
p6
Vnature.com
p7
sS'approved_at_utc'
p8
NsS'_comments_by_id'
p9
(dp10
sS'_info_params'
p11
(dp12
sS'banned_by'
p13
NsS'comment_sort'
p14
S'best'
p15
sS'media_embed'
p16
(dp17
sS'thumbnail_width'
p18
I140
sS'subreddit'
p19
g1
(cpraw.models.reddit.subreddit
Subreddit
p20
g3
NtRp21
(dp22
S'_wiki'
p23
NsS'display_name'
p24
Vscience
p25
sS'_stylesheet'
p26
NsS'_fetched'
p27
I00
sg11
(dp28
sS'_contributor'
p29
NsS'_banned'
p30
NsS'_muted'
p31
NsS'_quarantine'
p32
NsS'_modmail'
p33
NsS'_flair'
p34
NsS'_reddit'
p35
g1
(cpraw.reddit
Reddit
p36
g3
NtRp37
(dp38
S'_core'
p39
g1
(cprawcore.sessions
Session
p40
g3
NtRp41
(dp42
S'_authorizer'
p43
g1
(cprawcore.auth
ScriptAuthorizer
p44
g3
NtRp45
(dp46
S'scopes'
p47
c__builtin__
set
p48
((lp49
V*
atRp50
sS'_username'
p51
VJS_Research
p52
sS'access_token'
p53
VoR7ueivAi-yeTmPh7RRrUoU-sm8
p54
sS'_authenticator'
p55
g1
(cprawcore.auth
TrustedAuthenticator
p56
g3
NtRp57
(dp58
S'client_secret'
p59
VBgciYaBpyH8ef21jXMyJjn_DARE
p60
sS'redirect_uri'
p61
g1
(cpraw.config
_NotSet
p62
g3
NtRp63
sS'client_id'
p64
VwU1FwN1ugWt7eQ
p65
sS'_requestor'
p66
g1
(cprawcore.requestor
Requestor
p67
g3
NtRp68
(dp69
S'_http'
p70
g1
(crequests.sessions
Session
p71
g3
NtRp72
(dp73
S'cookies'
p74
g1
(crequests.cookies
RequestsCookieJar
p75
g3
NtRp76
(dp77
S'_now'
p78
I1510895610
sS'_policy'
p79
(icookielib
DefaultCookiePolicy
p80
(dp81
S'strict_rfc2965_unverifiable'
p82
I01
sS'strict_ns_domain'
p83
I0
sS'_allowed_domains'
p84
NsS'rfc2109_as_netscape'
p85
NsS'rfc2965'
p86
I00
sS'strict_domain'
p87
I00
sg78
I1510895610
sS'strict_ns_set_path'
p88
I00
sS'strict_ns_unverifiable'
p89
I00
sS'strict_ns_set_initial_dollar'
p90
I00
sS'hide_cookie2'
p91
I00
sS'_blocked_domains'
p92
(tsS'netscape'
p93
I01
sbsS'_cookies'
p94
(dp95
S'.reddit.com'
p96
(dp97
S'/'
(dp98
S'loid'
p99
(icookielib
Cookie
p100
(dp101
S'comment'
p102
Nsg6
S'.reddit.com'
p103
sS'name'
p104
g99
sS'domain_initial_dot'
p105
I00
sS'expires'
p106
I1573967423
sS'value'
p107
S'00000000000e7dsf19.2.1505716153623.Z0FBQUFBQmFEbTlBU1EwbzUyZ293WTJBdDJaamk2V2s2dzRJQmlEV3MxUTQxN212M2ZKZjlhN0xrRnVlSUZoODZzUHZqeEdpdzZ1aFAyT0ZVdUQtRm85dzNpcDNfeG0wbi1iZGs3OWF6WXg4RzNqejI0SV9lUllITXBkUGF4LU14ejUzMWxtLTBHT2Q'
p108
sS'domain_specified'
p109
I01
sS'_rest'
p110
(dp111
sS'version'
p112
I0
sS'port_specified'
p113
I00
sS'rfc2109'
p114
I00
sS'discard'
p115
I00
sS'path_specified'
p116
I01
sS'path'
p117
S'/'
sS'port'
p118
NsS'comment_url'
p119
NsS'secure'
p120
I01
sbsS'session_tracker'
p121
(icookielib
Cookie
p122
(dp123
g102
Nsg6
S'.reddit.com'
p124
sg104
S'session_tracker'
p125
sg105
I00
sg106
I1510902809
sg107
S'crQiBtrEVfCCgtFogt.0.1510895610205.Z0FBQUFBQmFEbV82eHgzMEcwQ0hsRTIwSDVVRTJYcUJCVHJVbkh2a0V2ZnlkWS04a2ZnVkExdW5JQmtxdHN2Z005LXZ1RzZQVGNlSGVPU1JQNmwyMkdxdG9LWGlwNVdKRlQxT0JmTlBxUzludEQtblBxeWViNWNUeEZMSzAxWkVXT1E4TkY3bDl4dDU'
p126
sg109
I01
sg110
(dp127
sg112
I0
sg113
I00
sg114
I00
sg115
I00
sg116
I01
sg117
S'/'
sg118
Nsg119
Nsg120
I01
sbsS'edgebucket'
p128
(icookielib
Cookie
p129
(dp130
g102
Nsg6
S'.reddit.com'
p131
sg104
g128
sg105
I00
sg106
I1573967422
sg107
S'wR7VzApWCkJPkoMBgW'
p132
sg109
I01
sg110
(dp133
sg112
I0
sg113
I00
sg114
I00
sg115
I00
sg116
I01
sg117
S'/'
sg118
Nsg119
Nsg120
I01
sbssssbsS'stream'
p134
I00
sS'hooks'
p135
(dp136
S'response'
p137
(lp138
ssS'auth'
p139
NsS'trust_env'
p140
I01
sS'headers'
p141
g1
(crequests.structures
CaseInsensitiveDict
p142
g3
NtRp143
(dp144
S'_store'
p145
curllib3.packages.ordered_dict
OrderedDict
p146
((lp147
(lp148
S'connection'
p149
a(S'Connection'
p150
S'keep-alive'
p151
tp152
aa(lp153
S'accept-encoding'
p154
a(S'Accept-Encoding'
p155
S'gzip, deflate'
tp156
aa(lp157
S'accept'
p158
a(S'Accept'
p159
S'*/*'
p160
tp161
aa(lp162
S'user-agent'
p163
a(S'User-Agent'
p164
S'News Article Downloader /u/JS_Research PRAW/5.2.0 prawcore/0.12.0'
tp165
aatRp166
sbsS'cert'
p167
NsS'params'
p168
(dp169
sS'prefetch'
p170
NsS'verify'
p171
I01
sS'proxies'
p172
(dp173
sS'adapters'
p174
g146
((lp175
(lp176
S'https://'
p177
ag1
(crequests.adapters
HTTPAdapter
p178
g3
NtRp179
(dp180
S'_pool_block'
p181
I00
sS'_pool_maxsize'
p182
I10
sS'max_retries'
p183
g1
(curllib3.util.retry
Retry
p184
g3
NtRp185
(dp186
S'status'
p187
NsS'redirect'
p188
NsS'read'
p189
I00
sS'backoff_factor'
p190
I0
sS'respect_retry_after_header'
p191
I01
sS'history'
p192
(tsS'raise_on_status'
p193
I01
sS'connect'
p194
NsS'status_forcelist'
p195
g48
((ltRp196
sS'total'
p197
I0
sS'raise_on_redirect'
p198
I01
sS'method_whitelist'
p199
c__builtin__
frozenset
p200
((lp201
S'HEAD'
p202
aS'TRACE'
p203
aS'GET'
p204
aS'PUT'
p205
aS'OPTIONS'
p206
aS'DELETE'
p207
atRp208
sbsS'config'
p209
(dp210
sS'_pool_connections'
p211
I10
sbaa(lp212
S'http://'
p213
ag1
(g178
g3
NtRp214
(dp215
g181
I00
sg182
I10
sg183
g1
(g184
g3
NtRp216
(dp217
g187
Nsg188
Nsg189
I00
sg190
I0
sg191
I01
sg192
(tsg193
I01
sg194
Nsg195
g48
((ltRp218
sg197
I0
sg198
I01
sg199
g208
sbsg209
(dp219
sg211
I10
sbaatRp220
sS'max_redirects'
p221
I30
sbsS'reddit_url'
p222
S'https://www.reddit.com'
p223
sS'oauth_url'
p224
S'https://oauth.reddit.com'
p225
sbsbsS'_password'
p226
VXPlstazuMC0CaX1Njhf0ny5u^nMD5t*P73O
p227
sS'_expiration_timestamp'
p228
F1510899012.1773059
sS'refresh_token'
p229
NsbsS'_rate_limiter'
p230
g1
(cprawcore.rate_limit
RateLimiter
p231
g3
NtRp232
(dp233
S'used'
p234
I114
sS'remaining'
p235
F486
sS'next_request_timestamp'
p236
F1510895611.0569813
sS'reset_timestamp'
p237
F1510896000.2545121
sbsbsS'_objector'
p238
g1
(cpraw.objector
Objector
p239
g3
NtRp240
(dp241
g35
g37
sS'parsers'
p242
(dp243
S'LiveUpdate'
p244
cpraw.models.reddit.live
LiveUpdate
p245
sS'ModmailConversation'
p246
cpraw.models.reddit.modmail
ModmailConversation
p247
sS'ModmailMessage'
p248
cpraw.models.reddit.modmail
ModmailMessage
p249
sS't4'
p250
cpraw.models.reddit.message
Message
p251
sS't5'
p252
g20
sS't2'
p253
cpraw.models.reddit.redditor
Redditor
p254
sS't3'
p255
g2
sS't1'
p256
cpraw.models.reddit.comment
Comment
p257
sS'UserList'
p258
cpraw.models.list.redditor
RedditorList
p259
sS'stylesheet'
p260
cpraw.models.stylesheet
Stylesheet
p261
sS'LabeledMulti'
p262
cpraw.models.reddit.multi
Multireddit
p263
sS'Listing'
p264
cpraw.models.listing.listing
Listing
p265
sS'modaction'
p266
cpraw.models.modaction
ModAction
p267
sS'LiveUpdateEvent'
p268
cpraw.models.reddit.live
LiveThread
p269
sS'ModmailAction'
p270
cpraw.models.reddit.modmail
ModmailAction
p271
sS'more'
p272
cpraw.models.reddit.more
MoreComments
p273
ssbsS'subreddits'
p274
g1
(cpraw.models.subreddits
Subreddits
p275
g3
NtRp276
(dp277
g35
g37
sbsg139
g1
(cpraw.models.auth
Auth
p278
g3
NtRp279
(dp280
g35
g37
sbsg19
g1
(cpraw.models.helpers
SubredditHelper
p281
g3
NtRp282
(dp283
g35
g37
sbsS'front'
p284
g1
(cpraw.models.front
Front
p285
g3
NtRp286
(dp287
g35
g37
sS'_comments'
p288
NsS'_path'
p289
S'/'
sbsS'live'
p290
g1
(cpraw.models.helpers
LiveHelper
p291
g3
NtRp292
(dp293
g35
g37
sbsS'inbox'
p294
g1
(cpraw.models.inbox
Inbox
p295
g3
NtRp296
(dp297
g35
g37
sbsS'multireddit'
p298
g1
(cpraw.models.helpers
MultiredditHelper
p299
g3
NtRp300
(dp301
g35
g37
sbsS'_unique_counter'
p302
I0
sg209
g1
(cpraw.config
Config
p303
g3
NtRp304
(dp305
S'username'
p306
g52
sg222
g223
sS'_settings'
p307
(dp308
g306
g52
sg59
g60
sS'password'
p309
g227
sS'user_agent'
p310
VNews Article Downloader /u/JS_Research
p311
sg64
g65
ssS'check_for_updates'
p312
I01
sS'custom'
p313
(dp314
sg61
g63
sg310
g311
sg64
g65
sS'_short_url'
p315
S'https://redd.it'
p316
sg59
g60
sg224
g225
sg309
g227
sS'kinds'
p317
(dp318
g102
g256
sS'message'
p319
g250
sS'redditor'
p320
g253
sS'submission'
p321
g255
sg19
g252
ssg229
g63
sbsS'_read_only_core'
p322
g1
(g40
g3
NtRp323
(dp324
g43
g1
(cprawcore.auth
ReadOnlyAuthorizer
p325
g3
NtRp326
(dp327
g53
Nsg47
Nsg228
Nsg229
Nsg55
g57
sbsg230
g1
(g231
g3
NtRp328
(dp329
g234
Nsg235
Nsg236
Nsg237
NsbsbsS'_authorized_core'
p330
g41
sS'user'
p331
g1
(cpraw.models.user
User
p332
g3
NtRp333
(dp334
g35
g37
sS'_me'
p335
g1
(g254
g3
NtRp336
(dp337
S'is_employee'
p338
I00
sS'has_visited_new_profile'
p339
I00
sS'pref_no_profanity'
p340
I01
sg11
(dp341
sS'is_suspended'
p342
I00
sS'pref_geopopular'
p343
V
sS'_listing_use_sort'
p344
I01
sg19
NsS'is_sponsor'
p345
I00
sS'gold_expiration'
p346
NsS'id'
p347
Ve7dsf19
p348
sS'suspension_expiration_utc'
p349
NsS'verified'
p350
I00
sg27
I00
sS'new_modmail_exists'
p351
NsS'features'
p352
(dp353
Vsearch_public_traffic
p354
(dp355
Vowner
p356
Vsearch
p357
sVvariant
p358
Vnew_search_11
p359
sVexperiment_id
p360
I212
ssVdo_not_track
p361
I01
sVgeopopular_au_holdout
p362
(dp363
Vowner
p364
Vrelevance
p365
sVvariant
p366
Vcontrol_2
p367
sVexperiment_id
p368
I206
ssVshow_amp_link
p369
I01
sVlive_happening_now
p370
I01
sVadserver_reporting
p371
I01
sVgeopopular
p372
I01
sVchat_rollout
p373
I01
sVads_auto_refund
p374
I01
sVlisting_service_rampup
p375
I01
sVmobile_web_targeting
p376
I01
sVdefault_srs_holdout
p377
(dp378
Vowner
p379
Vrelevance
p380
sVvariant
p381
Vtutorial
p382
sVexperiment_id
p383
I171
ssVadzerk_do_not_track
p384
I01
sVusers_listing
p385
I01
sVshow_user_sr_name
p386
I01
sVwhitelisted_pms
p387
I01
sVpersonalization_prefs
p388
I01
sVupgrade_cookies
p389
I01
sVnew_overview
p390
I01
sVnew_report_flow
p391
I01
sVblock_user_by_report
p392
I01
sVadblock_test
p393
I01
sVlegacy_search_pref
p394
I01
sVorangereds_as_emails
p395
I01
sVmweb_xpromo_modal_listing_click_daily_dismissible_ios
p396
I01
sVexpando_events
p397
I01
sVeu_cookie_policy
p398
I01
sVprogrammatic_ads
p399
I01
sVforce_https
p400
I01
sVinbox_push
p401
I01
sVpost_to_profile_beta
p402
I01
sVcrossposting_ga
p403
I01
sVoutbound_clicktracking
p404
I01
sVnew_loggedin_cache_policy
p405
I01
sVshow_secret_santa
p406
I01
sVhttps_redirect
p407
I01
sVsearch_dark_traffic
p408
I01
sVmweb_xpromo_interstitial_comments_ios
p409
I01
sVpause_ads
p410
I01
sVgive_hsts_grants
p411
I01
sVshow_recommended_link
p412
I01
sVmobile_native_banner
p413
I01
sVmweb_xpromo_interstitial_comments_android
p414
I01
sVads_auction
p415
I01
sVgeopopular_se_holdout
p416
(dp417
Vowner
p418
Vrelevance
p419
sVvariant
p420
Vcontrol_2
p421
sVexperiment_id
p422
I224
ssVscreenview_events
p423
I01
sVsubreddit_recommendations_carousel_holdout
p424
(dp425
Vowner
p426
Vrelevance
p427
sVvariant
p428
Vcontrol_2
p429
sVexperiment_id
p430
I239
ssVnew_report_dialog
p431
I01
sVmoat_tracking
p432
I01
sVsubreddit_rules
p433
I01
sVadzerk_reporting_2
p434
I01
sVactivity_service_write
p435
I01
sVads_auto_extend
p436
I01
sVinterest_targeting
p437
I01
sVpost_embed
p438
I01
sVmweb_xpromo_ad_loading_android
p439
(dp440
Vowner
p441
Vchannels
p442
sVvariant
p443
Vcontrol_1
p444
sVexperiment_id
p445
I187
ssVscroll_events
p446
I01
sVmweb_xpromo_modal_listing_click_daily_dismissible_android
p447
I01
sVcrossposting_recent
p448
I01
sVactivity_service_read
p449
I01
ssS'over_18'
p450
I00
sS'is_gold'
p451
I00
sS'is_mod'
p452
I00
sS'has_verified_email'
p453
I00
sS'in_redesign_beta'
p454
I00
sS'has_mod_mail'
p455
I00
sS'oauth_client_id'
p456
VwU1FwN1ugWt7eQ
p457
sS'hide_from_robots'
p458
I00
sS'link_karma'
p459
I1
sg35
g37
sS'inbox_count'
p460
I1
sS'pref_top_karma_subreddits'
p461
NsS'has_mail'
p462
I01
sS'pref_show_snoovatar'
p463
I00
sg104
VJS_Research
p464
sS'created'
p465
F1505744953
sS'_stream'
p466
NsS'gold_creddits'
p467
I0
sS'created_utc'
p468
F1505716153
sS'in_beta'
p469
I00
sS'comment_karma'
p470
I0
sS'has_subscribed'
p471
I00
sg289
S'user/JS_Research/'
p472
sbsbsbsS'_filters'
p473
Nsg466
Nsg288
NsS'_mod'
p474
NsS'_moderator'
p475
Nsg289
S'r/science/'
p476
sbsS'selftext_html'
p477
NsS'selftext'
p478
V
sS'likes'
p479
NsS'suggested_sort'
p480
Vconfidence
p481
sS'user_reports'
p482
(lp483
sS'secure_media'
p484
NsS'is_reddit_media_domain'
p485
I00
sS'link_flair_text'
p486
VMedicine
p487
sg347
V66h33i
p488
sS'banned_at_utc'
p489
NsS'view_count'
p490
NsS'archived'
p491
I01
sS'clicked'
p492
I00
sS'report_reasons'
p493
NsS'title'
p494
VFungi present a potential gold mine for antibiotic development--especially critical in the face of growing antibiotic resistance.
p495
sS'num_crossposts'
p496
I0
sS'saved'
p497
I00
sS'mod_reports'
p498
(lp499
sS'can_mod_post'
p500
I00
sS'is_crosspostable'
p501
I00
sS'pinned'
p502
I00
sS'comment_limit'
p503
I2048
sS'score'
p504
I2266
sS'approved_by'
p505
Nsg450
I00
sS'hidden'
p506
I00
sS'preview'
p507
(dp508
Vimages
p509
(lp510
(dp511
Vsource
p512
(dp513
Vurl
p514
Vhttps://i.redditmedia.com/Nq832U6Zm7LA82I0bAA1OBdWdrDtVgfjnPDhmCs7msw.jpg?s=09c5fb2f44e07709579f8904eb7c1937
p515
sVwidth
p516
I685
sVheight
p517
I345
ssVresolutions
p518
(lp519
(dp520
Vurl
p521
Vhttps://i.redditmedia.com/Nq832U6Zm7LA82I0bAA1OBdWdrDtVgfjnPDhmCs7msw.jpg?fit=crop&crop=faces%2Centropy&arh=2&w=108&s=6fb14fe96f0519b3d35af8f88f8b3e89
p522
sVwidth
p523
I108
sVheight
p524
I54
sa(dp525
Vurl
p526
Vhttps://i.redditmedia.com/Nq832U6Zm7LA82I0bAA1OBdWdrDtVgfjnPDhmCs7msw.jpg?fit=crop&crop=faces%2Centropy&arh=2&w=216&s=bd83f9b3eabb1dd574dba33583a33df4
p527
sVwidth
p528
I216
sVheight
p529
I108
sa(dp530
Vurl
p531
Vhttps://i.redditmedia.com/Nq832U6Zm7LA82I0bAA1OBdWdrDtVgfjnPDhmCs7msw.jpg?fit=crop&crop=faces%2Centropy&arh=2&w=320&s=73d9fe52e1ae81e6ef45dcea37604d64
p532
sVwidth
p533
I320
sVheight
p534
I161
sa(dp535
Vurl
p536
Vhttps://i.redditmedia.com/Nq832U6Zm7LA82I0bAA1OBdWdrDtVgfjnPDhmCs7msw.jpg?fit=crop&crop=faces%2Centropy&arh=2&w=640&s=b71a3c52e67a3aaca3806d5dcc2391d4
p537
sVwidth
p538
I640
sVheight
p539
I322
sasVvariants
p540
(dp541
sVid
p542
VxENz_CLMqdPo4A-Q5Go2v3X5KdTnyR3Xa6RPPA39GA4
p543
sasVenabled
p544
I00
ssS'thumbnail'
p545
Vhttps://b.thumbs.redditmedia.com/PbyKMeF562NJ_Y8cqrTGW5PqaxMwHbKK16JMlup8weo.jpg
p546
sS'subreddit_id'
p547
Vt5_mouw
p548
sS'whitelist_status'
p549
Vall_ads
p550
sS'edited'
p551
I00
sS'link_flair_css_class'
p552
Vmed
p553
sS'author_flair_css_class'
p554
NsS'contest_mode'
p555
I00
sS'gilded'
p556
I0
sS'downs'
p557
I0
sS'brand_safe'
p558
I01
sS'secure_media_embed'
p559
(dp560
sS'removal_reason'
p561
NsS'post_hint'
p562
Vlink
p563
sS'stickied'
p564
I00
sg35
g37
sS'can_gild'
p565
I01
sS'thumbnail_height'
p566
I70
sS'parent_whitelist_status'
p567
Vall_ads
p568
sg104
Vt3_66h33i
p569
sg474
NsS'spoiler'
p570
I00
sS'permalink'
p571
V/r/science/comments/66h33i/fungi_present_a_potential_gold_mine_for/
p572
sS'subreddit_type'
p573
Vpublic
p574
sS'locked'
p575
I00
sS'hide_score'
p576
I00
sg465
F1492716620
sS'url'
p577
Vhttps://www.nature.com/articles/nmicrobiol201744
p578
sS'author_flair_text'
p579
NsS'quarantine'
p580
I00
sS'author'
p581
g1
(g254
g3
NtRp582
(dp583
g104
VKermitTheSnail
p584
sg27
I00
sg11
(dp585
sg344
I01
sg466
Nsg35
g37
sg289
S'user/KermitTheSnail/'
p586
sbsg468
F1492687820
sS'subreddit_name_prefixed'
p587
Vr/science
p588
sS'ups'
p589
I2266
sg34
NsS'media'
p590
NsS'article_text'
p591
V1. Aminov, R. I. A brief history of the antibiotic era: lessons learned and challenges for the future . Front. Microbiol. 1, 134 (2010).\u000a\u000a2. Keller, N. P., Turner, G. & Bennett, J. W. Fungal secondary metabolismfrom biochemistry to genomics . Nat. Rev. Microbiol. 3, 937947 (2005).\u000a\u000a3. Nielsen, J. C. & Nielsen, J. Development of fungal cell factories for the production of secondary metabolites: linking genomics and metabolism . Synth. Syst. Biotechnol. http://dx.doi.org/10.1016/j.synbio.2017.02.002 (2017).\u000a\u000a4. Ziemert, N., Alanjary, M. & Weber, T. The evolution of genome mining in microbesa review . Nat. Prod. Rep. 33, 9881005 (2016).\u000a\u000a5. Medema, M. H. & Fischbach, M. A. Computational approaches to natural product discovery . Nat. Chem. Biol. 11, 639648 (2015).\u000a\u000a6. Visagie, C. M. et al. Identification and nomenclature of the genus Penicillium . Stud. Mycol. 78, 343371 (2014).\u000a\u000a7. Barrios-Gonzlez, J. & Miranda, R. U. Biotechnological production and applications of statins . Appl. Microbiol. Biotechnol. 85, 869883 (2010).\u000a\u000a8. Fang, X., Shen, Y., Zhao, J., Bao, X. & Qu, Y. Status and prospect of lignocellulosic bioethanol production in China . Bioresour. Technol. 101, 48144819 (2010).\u000a\u000a9. Garca-Estrada, C. & Martn, J.-F. Biosynthetic gene clusters for relevant secondary metabolites produced by Penicillium roqueforti in blue cheeses . Appl. Microbiol. Biotechnol. 100, 83038313 (2016).\u000a\u000a10. Chai, B., Wu, Y., Liu, P., Liu, B. & Gao, M. Isolation and phosphate-solubilizing ability of a fungus, Penicillium sp. from soil of an alum mine . J. Basic Microbiol. 51, 514 (2011).\u000a\u000a11. Richardson, A. E. & Simpson, R. J. Soil microorganisms mediating phosphorus availability update on microbial phosphorus . Plant Physiol. 156, 989996 (2011).\u000a\u000a12. Puel, O., Galtier, P. & Oswald, I. P. Biosynthesis and toxicological effects of patulin . Toxins 2, 613631 (2010).\u000a\u000a13. Grijseels, S. et al. Penicillium arizonense, a new, genome sequenced fungal species, reveals a high chemical diversity in secreted metabolites . Sci. Rep. 6, 35112 (2016).\u000a\u000a14. Park, M. S., Lee, E. J., Fong, J. J., Sohn, J. H. & Lim, Y. W. A new record of Penicillium antarcticum from marine environments in Korea . Mycobiology 42, 109113 (2014).\u000a\u000a15. Houbraken, J., Wang, L., Lee, H. B. & Frisvad, J. C. New sections in Penicillium containing novel species producing patulin, pyripyropens or other bioactive compounds . Persoonia 36, 299314 (2015).\u000a\u000a16. Weber, T. et al. antiSMASH 3.0a comprehensive resource for the genome mining of biosynthetic gene clusters . Nucleic Acids Res. 43, W237W243 (2015).\u000a\u000a17. Kroken, S., Glass, N. L., Taylor, J. W., Yoder, O. C. & Turgeon, B. G. Phylogenomic analysis of type I polyketide synthase genes in pathogenic and saprobic ascomycetes . Proc. Natl Acad. Sci. USA 100, 1567015675 (2003).\u000a\u000a18. Rausch, C., Hoof, I., Weber, T., Wohlleben, W. & Huson, D. H. Phylogenetic analysis of condensation domains in NRPS sheds light on their functional evolution . BMC Evol. Biol. 7, 78 (2007).\u000a\u000a19. Ziemert, N. et al. Diversity and evolution of secondary metabolism in the marine Actinomycete genus Salinispora . Proc. Natl Acad. Sci. USA 111, E1130E1139 (2014).\u000a\u000a20. Medema, M. H. et al. Minimum information about a biosynthetic gene cluster . Nat. Chem. Biol. 11, 625631 (2015).\u000a\u000a21. Klejnstrup, M. L. et al. Genetics of polyketide metabolism in Aspergillus nidulans . Metabolites 2, 100133 (2012).\u000a\u000a22. Artigot, M. P. et al. Molecular cloning and functional characterization of two CYP619 cytochrome P450s involved in biosynthesis of patulin in Aspergillus clavatus . Microbiology 155, 17381747 (2009).\u000a\u000a23. Holm, D. K. et al. Molecular and chemical characterization of the biosynthesis of the 6-MSA-derived meroterpenoid yanuthone D in Aspergillus niger . Chem. Biol. 21, 519529 (2014).\u000a\u000a24. Frisvad, J. C., Smedsgaard, J., Larsen, T. O. & Samson, R. A. Mycotoxins, drugs and other extrolites produced by species in Penicillium subgenus penicillium . Stud. Mycol. 49, 201241 (2004).\u000a\u000a25. Vansteelandt, M. et al. Patulin and secondary metabolite production by marine-derived Penicillium strains . Fungal Biol. 116, 954961 (2012).\u000a\u000a26. Boysen, M., Skouboe, P., Frisvad, J. & Rossen, L. Reclassification of the Penicillium roqueforti group into three species on the basis of molecular genetic and biochemical profiles . Microbiology 142, 541549 (1996).\u000a\u000a27. Ballester, A. et al. Genome, transcriptome, and functional analyses of Penicillium expansum provide new insights into secondary metabolism and pathogenicity . Mol. PlantMicrobe Interact. 28, 232248 (2015).\u000a\u000a28. Medema, M. H., Cimermancic, P., Sali, A., Takano, E. & Fischbach, M. A. A systematic computational analysis of biosynthetic gene cluster evolution: lessons for engineering biosynthesis . PLoS Comput. Biol. 10, e1004016 (2014).\u000a\u000a29. Banani, H. et al. Genome sequencing and secondary metabolism of the postharvest pathogen Penicillium griseofulvum . BMC Genomics 17, 19 (2016).\u000a\u000a30. Itoh, T. et al. Reconstitution of a fungal meroterpenoid biosynthesis reveals the involvement of a novel family of terpene cyclases . Nat. Chem. 2, 858864 (2010).\u000a\u000a31. Petersen, L. M., Holm, D. K., Gotfredsen, C. H., Mortensen, U. H. & Larsen, T. O. Investigation of a 6-MSA synthase gene cluster in Aspergillus aculeatus reveals 6-MSA-derived aculinic acid, aculins A-B and Epi-Aculin A . ChemBioChem 16, 22002204 (2015).\u000a\u000a32. Guo, C.-J., Sun, W.-W., Bruno, K. S. & Wang, C. C. C. Molecular genetic characterization of terreic acid pathway in Aspergillus terreus . Org. Lett. 16, 52505253 (2014).\u000a\u000a33. Bacha, N. et al. Cloning and characterization of novel methylsalicylic acid synthase gene involved in the biosynthesis of isoasperlactone and asperlactone in Aspergillus westerdijkiae . Fungal Genet. Biol. 46, 742749 (2009).\u000a\u000a34. Brakhage, A. A. Regulation of fungal secondary metabolism . Nat. Rev. Microbiol. 11, 2132 (2013).\u000a\u000a35. Wisecaver, J. H. & Rokas, A. Fungal metabolic gene clusterscaravans traveling across genomes and environments . Front. Microbiol. 6, 161 (2015).\u000a\u000a36. Chae, L., Kim, T., Nilo-Poyanco, R. & Rhee, S. Y. Genomic signatures of specialized metabolism in plants . Science 344, 510513 (2014).\u000a\u000a37. Li, Y. F. et al. Comprehensive curation and analysis of fungal biosynthetic gene clusters of published natural products . Fungal Genet. Biol. 89, 1828 (2016).\u000a\u000a38. Gao, X. et al. Fungal indole alkaloid biosynthesis: genetic and biochemical investigation of the tryptoquialanine pathway in Penicillium aethiopicum . J. Am. Chem. Soc. 133, 27292741 (2011).\u000a\u000a39. Chooi, Y.-H., Cacho, R. & Tang, Y. Identification of the viridicatumtoxin and griseofulvin gene clusters from Penicillium aethiopicum . Chem. Biol. 17, 483494 (2010).\u000a\u000a40. Petersen, L. M. et al. Characterization of four new antifungal yanuthones from Aspergillus niger . J. Antibiot. 68, 201205 (2015).\u000a\u000a41. Li, X., Choi, H. D., Kang, J. S., Lee, C.-O. & Son, B. W. New polyoxygenated farnesylcyclohexenones, deacetoxyyanuthone A and its hydro derivative from the marine-derived fungus Penicillium sp . J. Natural Prod. 66, 14991500 (2003).\u000a\u000a42. Maskey, R. P., Grn-Wollny, I. & Laatsch, H. Sorbicillin analogues and related dimeric compounds from Penicillium notatum . J. Natural Prod. 68, 865870 (2005).\u000a\u000a43. Simpson, J. et al. ABySS: a parallel assembler for short read sequence data . Genome Res. 19, 11171123 (2009).\u000a\u000a44. Luo, R. et al. SOAPdenovo2: an empirically improved memory-efficient short-read de novo assembler . Gigascience 1, 18 (2012).\u000a\u000a45. Bankevich, A. et al. SPAdes: a new genome assembly algorithm and its applications to single-cell sequencing . J. Comput. Biol. 19, 455477 (2012).\u000a\u000a46. Chevreux, B., Thomas, W. & Suhai, S. Genome sequence assembly using trace signals and additional sequence information . Comp. Sci. Biol. 99, 4556 (1999).\u000a\u000a47. Gurevich, A., Saveliev, V., Vyahhi, N. & Tesler, G. QUAST: quality assessment tool for genome assemblies . Bioinformatics 29, 10721075 (2013).\u000a\u000a48. Vezzi, F., Narzisi, G. & Mishra, B. Reevaluating assembly evaluations with feature response curves: gAGE and assemblathons . PLoS ONE 7, e52210 (2012).\u000a\u000a49. Smit, A., Hubley, R. & Green, P. RepeatMasker Open-4.0 (2015); http://www.repeatmasker.org.\u000a\u000a50. Smit, A. & Hubley, R. RepeatModeler Open-1.0 (2015); http://www.repeatmasker.org.\u000a\u000a51. The UniProt consortium. UniProt: a hub for protein information . Nucleic Acids Res. 43, D204D212 (2014).\u000a\u000a52. Lomsadze, A., Burns, P. D. & Borodovsky, M. Integration of mapped RNA-Seq reads into automatic training of eukaryotic gene finding algorithm . Nucleic Acids Res. 42, e119 (2014).\u000a\u000a53. Kim, D. et al. Tophat2: accurate alignment of transcriptomes in the presence of insertions, deletions and gene fusions . Genome Biol. 14, R36 (2013).\u000a\u000a54. Trapnell, C. et al. Transcript assembly and quantification by RNA-Seq reveals unannotated transcripts and isoform switching during cell differentiation . Nat. Biotechnol. 28, 511515 (2010).\u000a\u000a55. Holt, C. & Yandell, M. MAKER2: an annotation pipeline and genome-database management tool for second-generation genome projects . BMC Bioinformatics 12, 491 (2011).\u000a\u000a56. Zdobnov, E. M. & Apweiler, R. InterProScanan integration platform for the signature-recognition methods in InterPro . Bioinformatics 17, 847848 (2001).\u000a\u000a57. Simo, F. A., Waterhouse, R. M., Ioannidis, P., Kriventseva, E. V. & Zdobnov, E. M. BUSCO: assessing genome assembly and annotation completeness with single-copy orthologs . Bioinformatics 31, 32103212 (2015).\u000a\u000a58. Li, L., Stoeckert, C. J. J. & Roos, D. S. OrthoMCL: identification of ortholog groups for eukaryotic genomes . Genome Res. 13, 21782189 (2003).\u000a\u000a59. Agren, R. et al. The RAVEN toolbox and its use for generating a genome-scale metabolic model for Penicillium chrysogenum . PLoS Comput. Biol. 9, e1002980 (2013).\u000a\u000a60. Yin, Y. et al. dbCAN: a web resource for automated carbohydrate-active enzyme annotation . Nucleic Acids Res. 40, W445W451 (2012).\u000a\u000a61. Edgar, R. C. MUSCLE: multiple sequence alignment with high accuracy and high throughput . Nucleic Acids Res. 32, 17921797 (2004).\u000a\u000a62. Castresana, J. Selection of conserved blocks from multiple alignments for their use in phylogenetic analysis . Mol. Biol. Evol. 17, 540552 (2000).\u000a\u000a63. Felsenstein, J. PHYLIPphylogeny inference package (version 3.2) . Cladistics 5, 164166 (1989).\u000a\u000a64. Darriba, D., Taboada, G. L., Doallo, R. & Posada, D. Prottest 3: fast selection of best-fit models of protein evolution . Bioinformatics 27, 11641165 (2011).\u000a\u000a65. Stamatakis, A. RAxML-VI-HPC: maximum likelihood-based phylogenetic analyses with thousands of taxa and mixed models . Bioinformatics 22, 26882690 (2006).\u000a\u000a66. Katoh, K. & Standley, D. M. MAFFT multiple sequence alignment software version 7: improvements in performance and usability . Mol. Biol. Evol. 30, 772780 (2013).\u000a\u000a67. Guindon, S. et al. New algorithms and methods to estimate maximum-likelihood phylogenies: assessing the performance of PhyML 3.0 . Syst. Biol. 59, 307321 (2010).\u000a\u000a68. Huerta-Cepas, J., Serra, F. & Bork, P. ETE 3: reconstruction, analysis, and visualization of phylogenomic data . Mol. Biol. Evol. 33, 16351638 (2016).\u000a\u000a69. Ziemert, N. et al. The natural product domain seeker NaPDoS: a phylogeny based bioinformatic tool to classify secondary metabolite gene diversity . PLoS ONE 7, e34064 (2012).\u000a\u000a70. Smith, T. F. & Waterman, M. S. Identification of common molecular subsequences . J. Mol. Biol. 147, 195197 (1981).\u000a\u000a71. Cock, P. J. A. et al. Biopython: freely available Python tools for computational molecular biology and bioinformatics . Bioinformatics 25, 14221423 (2009).\u000a\u000a72. Medema, M. H., Takano, E. & Breitling, R. Detecting sequence homology at the gene cluster level with multigeneblast . Mol. Biol. Evol. 30, 12181223 (2013).\u000a\u000a73. Kildgaard, S. et al. Accurate dereplication of bioactive secondary metabolites from marine-derived fungi by UHPLC-DAD-QTOFMS and a MS/HRMS library . Mar. Drugs 12, 36813705 (2014).\u000a\u000a74. Klitgaard, A., Nielsen, J. B., Frandsen, R. J. N., Andersen, M. R. & Nielsen, K. F. Combining stable isotope labeling and molecular networking for biosynthetic pathway characterization . Anal. Chem. 87, 65206526 (2015).\u000a\u000a75. Nielsen, K. F., Mnsson, M., Rank, C., Frisvad, J. C. & Larsen, T. O. Dereplication of microbial natural products by LC-DAD-TOFMS . J. Natural Prod. 74, 23382348 (2011).
p592
sS'num_comments'
p593
I57
sS'is_self'
p594
I00
sS'visited'
p595
I00
sS'num_reports'
p596
NsS'is_video'
p597
I00
sS'distinguished'
p598
Nsg27
I00
sb.