ccopy_reg
_reconstructor
p1
(cpraw.models.reddit.submission
Submission
p2
c__builtin__
object
p3
NtRp4
(dp5
S'domain'
p6
Vnature.com
p7
sS'approved_at_utc'
p8
NsS'_comments_by_id'
p9
(dp10
sS'_info_params'
p11
(dp12
sS'banned_by'
p13
NsS'comment_sort'
p14
S'best'
p15
sS'media_embed'
p16
(dp17
sS'thumbnail_width'
p18
NsS'subreddit'
p19
g1
(cpraw.models.reddit.subreddit
Subreddit
p20
g3
NtRp21
(dp22
S'_wiki'
p23
NsS'display_name'
p24
Vscience
p25
sS'_stylesheet'
p26
NsS'_fetched'
p27
I00
sg11
(dp28
sS'_contributor'
p29
NsS'_banned'
p30
NsS'_muted'
p31
NsS'_quarantine'
p32
NsS'_modmail'
p33
NsS'_flair'
p34
NsS'_reddit'
p35
g1
(cpraw.reddit
Reddit
p36
g3
NtRp37
(dp38
S'_core'
p39
g1
(cprawcore.sessions
Session
p40
g3
NtRp41
(dp42
S'_authorizer'
p43
g1
(cprawcore.auth
ScriptAuthorizer
p44
g3
NtRp45
(dp46
S'scopes'
p47
c__builtin__
set
p48
((lp49
V*
atRp50
sS'_username'
p51
VJS_Research
p52
sS'access_token'
p53
VoR7ueivAi-yeTmPh7RRrUoU-sm8
p54
sS'_authenticator'
p55
g1
(cprawcore.auth
TrustedAuthenticator
p56
g3
NtRp57
(dp58
S'client_secret'
p59
VBgciYaBpyH8ef21jXMyJjn_DARE
p60
sS'redirect_uri'
p61
g1
(cpraw.config
_NotSet
p62
g3
NtRp63
sS'client_id'
p64
VwU1FwN1ugWt7eQ
p65
sS'_requestor'
p66
g1
(cprawcore.requestor
Requestor
p67
g3
NtRp68
(dp69
S'_http'
p70
g1
(crequests.sessions
Session
p71
g3
NtRp72
(dp73
S'cookies'
p74
g1
(crequests.cookies
RequestsCookieJar
p75
g3
NtRp76
(dp77
S'_now'
p78
I1510895610
sS'_policy'
p79
(icookielib
DefaultCookiePolicy
p80
(dp81
S'strict_rfc2965_unverifiable'
p82
I01
sS'strict_ns_domain'
p83
I0
sS'_allowed_domains'
p84
NsS'rfc2109_as_netscape'
p85
NsS'rfc2965'
p86
I00
sS'strict_domain'
p87
I00
sg78
I1510895610
sS'strict_ns_set_path'
p88
I00
sS'strict_ns_unverifiable'
p89
I00
sS'strict_ns_set_initial_dollar'
p90
I00
sS'hide_cookie2'
p91
I00
sS'_blocked_domains'
p92
(tsS'netscape'
p93
I01
sbsS'_cookies'
p94
(dp95
S'.reddit.com'
p96
(dp97
S'/'
(dp98
S'loid'
p99
(icookielib
Cookie
p100
(dp101
S'comment'
p102
Nsg6
S'.reddit.com'
p103
sS'name'
p104
g99
sS'domain_initial_dot'
p105
I00
sS'expires'
p106
I1573967423
sS'value'
p107
S'00000000000e7dsf19.2.1505716153623.Z0FBQUFBQmFEbTlBU1EwbzUyZ293WTJBdDJaamk2V2s2dzRJQmlEV3MxUTQxN212M2ZKZjlhN0xrRnVlSUZoODZzUHZqeEdpdzZ1aFAyT0ZVdUQtRm85dzNpcDNfeG0wbi1iZGs3OWF6WXg4RzNqejI0SV9lUllITXBkUGF4LU14ejUzMWxtLTBHT2Q'
p108
sS'domain_specified'
p109
I01
sS'_rest'
p110
(dp111
sS'version'
p112
I0
sS'port_specified'
p113
I00
sS'rfc2109'
p114
I00
sS'discard'
p115
I00
sS'path_specified'
p116
I01
sS'path'
p117
S'/'
sS'port'
p118
NsS'comment_url'
p119
NsS'secure'
p120
I01
sbsS'session_tracker'
p121
(icookielib
Cookie
p122
(dp123
g102
Nsg6
S'.reddit.com'
p124
sg104
S'session_tracker'
p125
sg105
I00
sg106
I1510902809
sg107
S'crQiBtrEVfCCgtFogt.0.1510895610205.Z0FBQUFBQmFEbV82eHgzMEcwQ0hsRTIwSDVVRTJYcUJCVHJVbkh2a0V2ZnlkWS04a2ZnVkExdW5JQmtxdHN2Z005LXZ1RzZQVGNlSGVPU1JQNmwyMkdxdG9LWGlwNVdKRlQxT0JmTlBxUzludEQtblBxeWViNWNUeEZMSzAxWkVXT1E4TkY3bDl4dDU'
p126
sg109
I01
sg110
(dp127
sg112
I0
sg113
I00
sg114
I00
sg115
I00
sg116
I01
sg117
S'/'
sg118
Nsg119
Nsg120
I01
sbsS'edgebucket'
p128
(icookielib
Cookie
p129
(dp130
g102
Nsg6
S'.reddit.com'
p131
sg104
g128
sg105
I00
sg106
I1573967422
sg107
S'wR7VzApWCkJPkoMBgW'
p132
sg109
I01
sg110
(dp133
sg112
I0
sg113
I00
sg114
I00
sg115
I00
sg116
I01
sg117
S'/'
sg118
Nsg119
Nsg120
I01
sbssssbsS'stream'
p134
I00
sS'hooks'
p135
(dp136
S'response'
p137
(lp138
ssS'auth'
p139
NsS'trust_env'
p140
I01
sS'headers'
p141
g1
(crequests.structures
CaseInsensitiveDict
p142
g3
NtRp143
(dp144
S'_store'
p145
curllib3.packages.ordered_dict
OrderedDict
p146
((lp147
(lp148
S'connection'
p149
a(S'Connection'
p150
S'keep-alive'
p151
tp152
aa(lp153
S'accept-encoding'
p154
a(S'Accept-Encoding'
p155
S'gzip, deflate'
tp156
aa(lp157
S'accept'
p158
a(S'Accept'
p159
S'*/*'
p160
tp161
aa(lp162
S'user-agent'
p163
a(S'User-Agent'
p164
S'News Article Downloader /u/JS_Research PRAW/5.2.0 prawcore/0.12.0'
tp165
aatRp166
sbsS'cert'
p167
NsS'params'
p168
(dp169
sS'prefetch'
p170
NsS'verify'
p171
I01
sS'proxies'
p172
(dp173
sS'adapters'
p174
g146
((lp175
(lp176
S'https://'
p177
ag1
(crequests.adapters
HTTPAdapter
p178
g3
NtRp179
(dp180
S'_pool_block'
p181
I00
sS'_pool_maxsize'
p182
I10
sS'max_retries'
p183
g1
(curllib3.util.retry
Retry
p184
g3
NtRp185
(dp186
S'status'
p187
NsS'redirect'
p188
NsS'read'
p189
I00
sS'backoff_factor'
p190
I0
sS'respect_retry_after_header'
p191
I01
sS'history'
p192
(tsS'raise_on_status'
p193
I01
sS'connect'
p194
NsS'status_forcelist'
p195
g48
((ltRp196
sS'total'
p197
I0
sS'raise_on_redirect'
p198
I01
sS'method_whitelist'
p199
c__builtin__
frozenset
p200
((lp201
S'HEAD'
p202
aS'TRACE'
p203
aS'GET'
p204
aS'PUT'
p205
aS'OPTIONS'
p206
aS'DELETE'
p207
atRp208
sbsS'config'
p209
(dp210
sS'_pool_connections'
p211
I10
sbaa(lp212
S'http://'
p213
ag1
(g178
g3
NtRp214
(dp215
g181
I00
sg182
I10
sg183
g1
(g184
g3
NtRp216
(dp217
g187
Nsg188
Nsg189
I00
sg190
I0
sg191
I01
sg192
(tsg193
I01
sg194
Nsg195
g48
((ltRp218
sg197
I0
sg198
I01
sg199
g208
sbsg209
(dp219
sg211
I10
sbaatRp220
sS'max_redirects'
p221
I30
sbsS'reddit_url'
p222
S'https://www.reddit.com'
p223
sS'oauth_url'
p224
S'https://oauth.reddit.com'
p225
sbsbsS'_password'
p226
VXPlstazuMC0CaX1Njhf0ny5u^nMD5t*P73O
p227
sS'_expiration_timestamp'
p228
F1510899012.1773059
sS'refresh_token'
p229
NsbsS'_rate_limiter'
p230
g1
(cprawcore.rate_limit
RateLimiter
p231
g3
NtRp232
(dp233
S'used'
p234
I114
sS'remaining'
p235
F486
sS'next_request_timestamp'
p236
F1510895611.0569813
sS'reset_timestamp'
p237
F1510896000.2545121
sbsbsS'_objector'
p238
g1
(cpraw.objector
Objector
p239
g3
NtRp240
(dp241
g35
g37
sS'parsers'
p242
(dp243
S'LiveUpdate'
p244
cpraw.models.reddit.live
LiveUpdate
p245
sS'ModmailConversation'
p246
cpraw.models.reddit.modmail
ModmailConversation
p247
sS'ModmailMessage'
p248
cpraw.models.reddit.modmail
ModmailMessage
p249
sS't4'
p250
cpraw.models.reddit.message
Message
p251
sS't5'
p252
g20
sS't2'
p253
cpraw.models.reddit.redditor
Redditor
p254
sS't3'
p255
g2
sS't1'
p256
cpraw.models.reddit.comment
Comment
p257
sS'UserList'
p258
cpraw.models.list.redditor
RedditorList
p259
sS'stylesheet'
p260
cpraw.models.stylesheet
Stylesheet
p261
sS'LabeledMulti'
p262
cpraw.models.reddit.multi
Multireddit
p263
sS'Listing'
p264
cpraw.models.listing.listing
Listing
p265
sS'modaction'
p266
cpraw.models.modaction
ModAction
p267
sS'LiveUpdateEvent'
p268
cpraw.models.reddit.live
LiveThread
p269
sS'ModmailAction'
p270
cpraw.models.reddit.modmail
ModmailAction
p271
sS'more'
p272
cpraw.models.reddit.more
MoreComments
p273
ssbsS'subreddits'
p274
g1
(cpraw.models.subreddits
Subreddits
p275
g3
NtRp276
(dp277
g35
g37
sbsg139
g1
(cpraw.models.auth
Auth
p278
g3
NtRp279
(dp280
g35
g37
sbsg19
g1
(cpraw.models.helpers
SubredditHelper
p281
g3
NtRp282
(dp283
g35
g37
sbsS'front'
p284
g1
(cpraw.models.front
Front
p285
g3
NtRp286
(dp287
g35
g37
sS'_comments'
p288
NsS'_path'
p289
S'/'
sbsS'live'
p290
g1
(cpraw.models.helpers
LiveHelper
p291
g3
NtRp292
(dp293
g35
g37
sbsS'inbox'
p294
g1
(cpraw.models.inbox
Inbox
p295
g3
NtRp296
(dp297
g35
g37
sbsS'multireddit'
p298
g1
(cpraw.models.helpers
MultiredditHelper
p299
g3
NtRp300
(dp301
g35
g37
sbsS'_unique_counter'
p302
I0
sg209
g1
(cpraw.config
Config
p303
g3
NtRp304
(dp305
S'username'
p306
g52
sg222
g223
sS'_settings'
p307
(dp308
g306
g52
sg59
g60
sS'password'
p309
g227
sS'user_agent'
p310
VNews Article Downloader /u/JS_Research
p311
sg64
g65
ssS'check_for_updates'
p312
I01
sS'custom'
p313
(dp314
sg61
g63
sg310
g311
sg64
g65
sS'_short_url'
p315
S'https://redd.it'
p316
sg59
g60
sg224
g225
sg309
g227
sS'kinds'
p317
(dp318
g102
g256
sS'message'
p319
g250
sS'redditor'
p320
g253
sS'submission'
p321
g255
sg19
g252
ssg229
g63
sbsS'_read_only_core'
p322
g1
(g40
g3
NtRp323
(dp324
g43
g1
(cprawcore.auth
ReadOnlyAuthorizer
p325
g3
NtRp326
(dp327
g53
Nsg47
Nsg228
Nsg229
Nsg55
g57
sbsg230
g1
(g231
g3
NtRp328
(dp329
g234
Nsg235
Nsg236
Nsg237
NsbsbsS'_authorized_core'
p330
g41
sS'user'
p331
g1
(cpraw.models.user
User
p332
g3
NtRp333
(dp334
g35
g37
sS'_me'
p335
g1
(g254
g3
NtRp336
(dp337
S'is_employee'
p338
I00
sS'has_visited_new_profile'
p339
I00
sS'pref_no_profanity'
p340
I01
sg11
(dp341
sS'is_suspended'
p342
I00
sS'pref_geopopular'
p343
V
sS'_listing_use_sort'
p344
I01
sg19
NsS'is_sponsor'
p345
I00
sS'gold_expiration'
p346
NsS'id'
p347
Ve7dsf19
p348
sS'suspension_expiration_utc'
p349
NsS'verified'
p350
I00
sg27
I00
sS'new_modmail_exists'
p351
NsS'features'
p352
(dp353
Vsearch_public_traffic
p354
(dp355
Vowner
p356
Vsearch
p357
sVvariant
p358
Vnew_search_11
p359
sVexperiment_id
p360
I212
ssVdo_not_track
p361
I01
sVgeopopular_au_holdout
p362
(dp363
Vowner
p364
Vrelevance
p365
sVvariant
p366
Vcontrol_2
p367
sVexperiment_id
p368
I206
ssVshow_amp_link
p369
I01
sVlive_happening_now
p370
I01
sVadserver_reporting
p371
I01
sVgeopopular
p372
I01
sVchat_rollout
p373
I01
sVads_auto_refund
p374
I01
sVlisting_service_rampup
p375
I01
sVmobile_web_targeting
p376
I01
sVdefault_srs_holdout
p377
(dp378
Vowner
p379
Vrelevance
p380
sVvariant
p381
Vtutorial
p382
sVexperiment_id
p383
I171
ssVadzerk_do_not_track
p384
I01
sVusers_listing
p385
I01
sVshow_user_sr_name
p386
I01
sVwhitelisted_pms
p387
I01
sVpersonalization_prefs
p388
I01
sVupgrade_cookies
p389
I01
sVnew_overview
p390
I01
sVnew_report_flow
p391
I01
sVblock_user_by_report
p392
I01
sVadblock_test
p393
I01
sVlegacy_search_pref
p394
I01
sVorangereds_as_emails
p395
I01
sVmweb_xpromo_modal_listing_click_daily_dismissible_ios
p396
I01
sVexpando_events
p397
I01
sVeu_cookie_policy
p398
I01
sVprogrammatic_ads
p399
I01
sVforce_https
p400
I01
sVinbox_push
p401
I01
sVpost_to_profile_beta
p402
I01
sVcrossposting_ga
p403
I01
sVoutbound_clicktracking
p404
I01
sVnew_loggedin_cache_policy
p405
I01
sVshow_secret_santa
p406
I01
sVhttps_redirect
p407
I01
sVsearch_dark_traffic
p408
I01
sVmweb_xpromo_interstitial_comments_ios
p409
I01
sVpause_ads
p410
I01
sVgive_hsts_grants
p411
I01
sVshow_recommended_link
p412
I01
sVmobile_native_banner
p413
I01
sVmweb_xpromo_interstitial_comments_android
p414
I01
sVads_auction
p415
I01
sVgeopopular_se_holdout
p416
(dp417
Vowner
p418
Vrelevance
p419
sVvariant
p420
Vcontrol_2
p421
sVexperiment_id
p422
I224
ssVscreenview_events
p423
I01
sVsubreddit_recommendations_carousel_holdout
p424
(dp425
Vowner
p426
Vrelevance
p427
sVvariant
p428
Vcontrol_2
p429
sVexperiment_id
p430
I239
ssVnew_report_dialog
p431
I01
sVmoat_tracking
p432
I01
sVsubreddit_rules
p433
I01
sVadzerk_reporting_2
p434
I01
sVactivity_service_write
p435
I01
sVads_auto_extend
p436
I01
sVinterest_targeting
p437
I01
sVpost_embed
p438
I01
sVmweb_xpromo_ad_loading_android
p439
(dp440
Vowner
p441
Vchannels
p442
sVvariant
p443
Vcontrol_1
p444
sVexperiment_id
p445
I187
ssVscroll_events
p446
I01
sVmweb_xpromo_modal_listing_click_daily_dismissible_android
p447
I01
sVcrossposting_recent
p448
I01
sVactivity_service_read
p449
I01
ssS'over_18'
p450
I00
sS'is_gold'
p451
I00
sS'is_mod'
p452
I00
sS'has_verified_email'
p453
I00
sS'in_redesign_beta'
p454
I00
sS'has_mod_mail'
p455
I00
sS'oauth_client_id'
p456
VwU1FwN1ugWt7eQ
p457
sS'hide_from_robots'
p458
I00
sS'link_karma'
p459
I1
sg35
g37
sS'inbox_count'
p460
I1
sS'pref_top_karma_subreddits'
p461
NsS'has_mail'
p462
I01
sS'pref_show_snoovatar'
p463
I00
sg104
VJS_Research
p464
sS'created'
p465
F1505744953
sS'_stream'
p466
NsS'gold_creddits'
p467
I0
sS'created_utc'
p468
F1505716153
sS'in_beta'
p469
I00
sS'comment_karma'
p470
I0
sS'has_subscribed'
p471
I00
sg289
S'user/JS_Research/'
p472
sbsbsbsS'_filters'
p473
Nsg466
Nsg288
NsS'_mod'
p474
NsS'_moderator'
p475
Nsg289
S'r/science/'
p476
sbsS'selftext_html'
p477
NsS'selftext'
p478
V
sS'likes'
p479
NsS'suggested_sort'
p480
Vconfidence
p481
sS'user_reports'
p482
(lp483
sS'secure_media'
p484
NsS'is_reddit_media_domain'
p485
I00
sS'link_flair_text'
p486
VNeuroscience
p487
sg347
V5ihfo5
p488
sS'banned_at_utc'
p489
NsS'view_count'
p490
NsS'archived'
p491
I01
sS'clicked'
p492
I00
sS'report_reasons'
p493
NsS'title'
p494
VNew review offers further insight into how long-term marijuana use might have a negative impact on mental health, after finding "substantial evidence" that the drug alters the brain's reward system to increase negative emotions and decrease motivation.
p495
sS'num_crossposts'
p496
I0
sS'saved'
p497
I00
sS'mod_reports'
p498
(lp499
sS'can_mod_post'
p500
I00
sS'is_crosspostable'
p501
I00
sS'pinned'
p502
I00
sS'comment_limit'
p503
I2048
sS'score'
p504
I541
sS'approved_by'
p505
Nsg450
I00
sS'hidden'
p506
I00
sS'thumbnail'
p507
Vdefault
p508
sS'subreddit_id'
p509
Vt5_mouw
p510
sS'whitelist_status'
p511
Vall_ads
p512
sS'edited'
p513
I00
sS'link_flair_css_class'
p514
Vneuro
p515
sS'author_flair_css_class'
p516
NsS'contest_mode'
p517
I00
sS'gilded'
p518
I0
sS'downs'
p519
I0
sS'brand_safe'
p520
I01
sS'secure_media_embed'
p521
(dp522
sS'removal_reason'
p523
NsS'stickied'
p524
I00
sg35
g37
sS'can_gild'
p525
I01
sS'thumbnail_height'
p526
NsS'parent_whitelist_status'
p527
Vall_ads
p528
sg104
Vt3_5ihfo5
p529
sg474
NsS'spoiler'
p530
I00
sS'permalink'
p531
V/r/science/comments/5ihfo5/new_review_offers_further_insight_into_how/
p532
sS'subreddit_type'
p533
Vpublic
p534
sS'locked'
p535
I00
sS'hide_score'
p536
I00
sg465
F1481836363
sS'url'
p537
Vhttp://www.nature.com/nature/journal/v539/n7629/full/nature20153.html
p538
sS'author_flair_text'
p539
NsS'quarantine'
p540
I00
sS'author'
p541
g1
(g254
g3
NtRp542
(dp543
g104
VWagamaga
p544
sg27
I00
sg11
(dp545
sg344
I01
sg466
Nsg35
g37
sg289
S'user/Wagamaga/'
p546
sbsg468
F1481807563
sS'subreddit_name_prefixed'
p547
Vr/science
p548
sS'ups'
p549
I541
sg34
NsS'media'
p550
NsS'article_text'
p551
V1. Substance Abuse and Mental Health Services Administration. Results from the 2013 National Survey on Drug Use and Health: Summary of National Findings Vol. HHS Publication No. (SMA) 144863 (Substance Abuse and Mental Health Services Administration, 2014)\u000a\u000a2. EMCDDA. European Drug Report 2015: Trends and Developments (European Monitoring Centre for Drugs and Drug Addiction, Lisbon, 2015)\u000a\u000a3. Volkow, N. D. et al. Effects of cannabis use on human behavior, including cognition, motivation, and psychosis: a review . JAMA Psychiatry 73, 292297 (2016)\u000a\u000a4. Di Forti, M. et al. Daily use, especially of high-potency cannabis, drives the earlier onset of psychosis in cannabis users . Schizophr. Bull. 40, 15091517 (2014)\u000a\u000a5. Fergusson, D. M., Boden, J. M. & Horwood, L. J. Cannabis use and other illicit drug use: testing the cannabis gateway hypothesis . Addiction 101, 556569 (2006)\u000a\u000a6. Horwood, L. J. et al. Cannabis and depression: an integrative data analysis of four Australasian cohorts . Drug Alcohol Depend. 126, 369378 (2012)\u000a\u000a7. Silins, E. et al. Young adult sequelae of adolescent cannabis use: an integrative analysis . Lancet Psychiatry 1, 286293 (2014)\u000a\u000a8. Crane, N. A., Schuster, R. M., Fusar-Poli, P. & Gonzalez, R. Effects of cannabis on neurocognitive functioning: recent advances, neurodevelopmental influences, and sex differences . Neuropsychol. Rev. 23, 117137 (2013)\u000a\u000a9. Cherek, D. R., Lane, S. D. & Dougherty, D. M. Possible amotivational effects following marijuana smoking under laboratory conditions . Exp. Clin. Psychopharmacol. 10, 2638 (2002)\u000a\u000a10. Wachtel, S. R., ElSohly, M. A., Ross, S. A., Ambre, J. & de Wit, H. Comparison of the subjective effects of 9-tetrahydrocannabinol and marijuana in humans . Psychopharmacology (Berl.) 161, 331339 (2002)\u000a\u000a11. Felder, C. C., Veluz, J. S., Williams, H. L., Briley, E. M. & Matsuda, L. A. Cannabinoid agonists stimulate both receptor- and non-receptor-mediated signal transduction pathways in cells transfected with and expressing cannabinoid receptor clones . Mol. Pharmacol. 42, 838845 (1992)\u000a\u000a12. Mehmedic, Z. et al. Potency trends of 9-THC and other cannabinoids in confiscated cannabis preparations from 1993 to 2008 . J. Forensic Sci. 55, 12091217 (2010)\u000a\u000a13. Spaderna, M., Addy, P. H. & DSouza, D. C. Spicing things up: synthetic cannabinoids . Psychopharmacology (Berl.) 228, 525540 (2013)\u000a\u000a14. Benjamin, D. M. & Fossler, M. J. Edible cannabis products: it is time for FDA oversight . J. Clin. Pharmacol. (2016)\u000a\u000a15. Varlet, V. et al. Drug vaping applied to cannabis: Is Cannavaping a therapeutic alternative to marijuana? Sci. Rep. 6, 25599 (2016)\u000a\u000a16. Vallee, M. et al. Pregnenolone can protect the brain from cannabis intoxication . Science 343, 9498 (2014)\u000a\u000a17. Huestis, M. A. et al. Blockade of effects of smoked marijuana by the CB1-selective cannabinoid receptor antagonist SR141716 . Arch. Gen. Psychiatry 58, 322328 (2001).The psychoactive active effects of cannabis are mediated via the CB 1 receptor.\u000a\u000a18. Elphick, M. R. & Egertova, M. The neurobiology and evolution of cannabinoid signalling. Phil . Trans. R. Soc. Lond. B 356, 381408 (2001)\u000a\u000a19. Pertwee, R. G. The diverse CB 1 and CB 2 receptor pharmacology of three plant cannabinoids: 9-tetrahydrocannabinol, cannabidiol and 9-tetrahydrocannabivarin . Br. J. Pharmacol. 153, 199215 (2008)\u000a\u000a20. Kathmann, M., Flau, K., Redmer, A., Trankle, C. & Schlicker, E. Cannabidiol is an allosteric modulator at - and -opioid receptors . Naunyn Schmiedebergs Arch. Pharmacol. 372, 354361 (2006)\u000a\u000a21. Chartoff, E. H. & Connery, H. S. Its MORe exciting than mu: crosstalk between mu opioid receptors and glutamatergic transmission in the mesolimbic dopamine system . Front. Pharmacol. 5, 116 (2014)\u000a\u000a22. Hollister, L. E. & Gillespie, H. K. Action of 9-tetrahydrocannabinol. An approach to the active metabolite hypothesis . Clin. Pharmacol. Ther. 18, 714719 (1975)\u000a\u000a23. Garriott, J. C., King, L. J., Forney, R. B. & Hughes, F. W. Effects of some tetrahydrocannabinols on hexobarbital sleeping time and amphetamine induced hyperactivity in mice . Life Sci. 6, 21192128 (1967)\u000a\u000a24. Howes, J. & Osgood, P. The effect of 9-tetrahydrocannabinol on the uptake and release of 14C-dopamine from crude striatal synaptosoma; preparations . Neuropharmacology 13, 11091114 (1974)\u000a\u000a25. Fernandez-Ruiz, J., Hernandez, M. & Ramos, J. A. Cannabinoid-dopamine interaction in the pathophysiology and treatment of CNS disorders . CNS Neurosci. Ther. 16, e72e91 (2010)\u000a\u000a26. Herkenham, M., Lynn, A. B., Decosta, B. R. & Richfield, E. K. Neuronal localization of cannabinoid receptors in the basal ganglia of the rat . Brain Res. 547, 267274 (1991)\u000a\u000a27. Solinas, M., Justinova, Z., Goldberg, S. R. & Tanda, G. Anandamide administration alone and after inhibition of fatty acid amide hydrolase (FAAH) increases dopamine levels in the nucleus accumbens shell in rats . J. Neurochem. 98, 408419 (2006)\u000a\u000a28. De Luca, M. A. et al. Endocannabinoid 2-arachidonoylglycerol self-administration by SpragueDawley rats and stimulation of in vivo dopamine transmission in the nucleus accumbens shell . Front. Psychiatry 5, 140 (2014)\u000a\u000a29. Bloom, A. S. & Dewey, W. L. A comparison of some pharmacological actions of morphine and 9-tetrahydrocannabinol in the mouse . Psychopharmacology (Berl.) 57, 243248 (1978)\u000a\u000a30. Hershkowitz, M. & Szechtman, H. Pretreatment with 1-tetrahydrocannabinol and psychoactive drugs: effects on uptake of biogenic amines and on behavior . Eur. J. Pharmacol. 59, 267276 (1979)\u000a\u000a31. Poddar, M. K. & Dewey, W. L. Effects of cannabinoids on catecholamine uptake and release in hypothalamic and striatal synaptosomes . J. Pharmacol. Exp. Ther. 214, 6367 (1980)\u000a\u000a32. Aulakh, C. S., Bhattacharyya, A. K., Hossain, M. A. & Pradhan, S. N. Behavioral and neurochemical effects of repeated administration of 9-tetrahydrocannabinol in rats . Neuropharmacology 19, 97102 (1980)\u000a\u000a33. Maitre, L., Staehelin, M. & Bein, H. J. Effect of an extract of cannabis and of some cannabinols on catecholamine metabolism in rat brain and heart . Agents Actions 1, 136143 (1970)\u000a\u000a34. Bloom, A. S., Johnson, K. M. & Dewey, W. L. The effects of cannabinoids on body temperature and brain catecholamine synthesis . Res. Commun. Chem. Pathol. Pharmacol. 20, 5157 (1978)\u000a\u000a35. Romero, J., Demiguel, R., Garciapalomero, E., Fernandezruiz, J. J. & Ramos, J. A. Time-course of the effects of anandamide, the putative endogenous cannabinoid receptor-ligand, on extrapyramidal function . Brain Res. 694, 223232 (1995)\u000a\u000a36. Bosier, B. et al. Differential modulations of striatal tyrosine hydroxylase and dopamine metabolism by cannabinoid agonists as evidence for functional selectivity in vivo . Neuropharmacology 62, 23282336 (2012)\u000a\u000a37. Navarro, M. et al. An acute dose of 9-tetrahydrocannabinol affects behavioral and neurochemical indices of mesolimbic dopaminergic activity . Behav. Brain Res. 57, 3746 (1993)\u000a\u000a38. Heien, M. L. et al. Real-time measurement of dopamine fluctuations after cocaine in the brain of behaving rats . Proc. Natl Acad. Sci. USA 102, 1002310028 (2005)\u000a\u000a39. Pistis, M. et al. 9-Tetrahydrocannabinol decreases extracellular GABA and increases extracellular glutamate and dopamine levels in the rat prefrontal cortex: An in vivo microdialysis study . Brain Res. 948, 155158 (2002)\u000a\u000a40. Ng Cheong Ton, J. M. et al. The effects of 9-tetrahydrocannabinol on potassium-evoked release of dopamine in the rat caudate nucleus: an in vivo electrochemical and in vivo microdialysis study . Brain Res. 451, 5968 (1988)\u000a\u000a41. Chen, J. P. et al. 9-tetrahydrocannabinol produces naloxone-blockable enhancement of presynaptic basal dopamine efflux in nucleus accumbens of conscious, freely-moving rats as measured by intracerebral microdialysis . Psychopharmacology (Berl.) 102, 156162 (1990)\u000a\u000a42. Castaneda, E., Moss, D., Oddie, S. & Whishaw, I. THC does not affect striatal dopamine release: Microdialysis in freely moving rats . Pharmacol. Biochem. Behav. 40, 587591 (1991)\u000a\u000a43. Nahas, G. G. in Medical Aspects of Drug Abuse (ed. R. W. Richter) 1636 (Harper & Row, 1975)\u000a\u000a44. Chen, J., Paredes, W., Lowinson, J. & Gardner, E. Strain-specific facilitation of dopamine efflux by 9-tetrahydrocannabinol in the nucleus accumbens of rat: An in vivo microdialysis study . Neurosci. Lett. 129, 136140 (1991)\u000a\u000a45. Oleson, E. B. & Cheer, J. F. A brain on cannabinoids: the role of dopamine release in reward seeking . Cold Spring Harb. Perspect. Med. 2, a012229 (2012)\u000a\u000a46. French, E. 9-Tetrahydrocannabinol excites rat VTA dopamine neurons through activation of cannabinoid CB1 but not opioid receptors . Neurosci. Lett. 226, 159162 (1997)\u000a\u000a47. Ali, S. F. et al. Chronic marijuana smoke exposure in the rhesus monkey. IV: Neurochemical effects and comparison to acute and chronic exposure to 9-tetrahydrocannabinol (THC) in rats . Pharmacol. Biochem. Behav. 40, 677682 (1991)\u000a\u000a48. Navarro, M. et al. Motor disturbances induced by an acute dose of 9-tetrahydrocannabinol: Possible involvement of nigrostriatal dopaminergic alterations . Pharmacol. Biochem. Behav. 45, 291298 (1993)\u000a\u000a49. Rodrguez De Fonseca, F. et al. Acute effects of 9-tetrahydrocannabinol on dopaminergic activity in several rat-brain areas . Pharmacol. Biochem. Behav. 42, 269275 (1992)\u000a\u000a50. Volkow, N. D. et al. Brain glucose metabolism in chronic marijuana users at baseline and during marijuana intoxication . Psychiatry Res. 67, 2938 (1996)\u000a\u000a51. Pertwee, R. G. & Ross, R. A. Cannabinoid receptors and their ligands . Prostaglandins Leukot. Essent. Fatty Acids 66, 101121 (2002)\u000a\u000a52. Borgwardt, S. J. et al. Neural basis of 9-tetrahydrocannabinol and cannabidiol: effects during response inhibition . Biol. Psychiatry 64, 966973 (2008)\u000a\u000a53. Bhattacharyya, S. et al. Opposite effects of 9-tetrahydrocannabinol and cannabidiol on human brain function and psychopathology . Neuropsychopharmacology 35, 764774 (2010)\u000a\u000a54. van Hell, H. H. et al. Involvement of the endocannabinoid system in reward processing in the human brain . Psychopharmacology (Berl.) 219, 981990 (2012)\u000a\u000a55. Bossong, M. G. et al. Further human evidence for striatal dopamine release induced by administration of 9-tetrahydrocannabinol (THC): selectivity to limbic striatum . Psychopharmacology (Berl.) (2015)\u000a\u000a56. Stokes, P. R. et al. Significant decreases in frontal and temporal [11C]-raclopride binding after THC challenge . Neuroimage 52, 15211527 (2010)\u000a\u000a57. Barkus, E. et al. Does intravenous 9-tetrahydrocannabinol increase dopamine release? A SPET study . J. Psychopharmacol. 25, 14621468 (2011)\u000a\u000a58. Volkow, N. D. et al. Reinforcing effects of psychostimulants in humans are associated with increases in brain dopamine and occupancy of D 2 receptors . J. Pharmacol. Exp. Ther. 291, 409415 (1999)\u000a\u000a59. Egerton, A., Demjaha, A., McGuire, P., Mehta, M. A. & Howes, O. D. The test-retest reliability of 18F-DOPA PET in assessing striatal and extrastriatal presynaptic dopaminergic function . Neuroimage 50, 524531 (2010)\u000a\u000a60. Jentsch, J., Verrico, C., Le, D. & Roth, R. Repeated exposure to 9-tetrahydrocannabinol reduces prefrontal cortical dopamine metabolism in the rat . Neurosci. Lett. 246, 169172 (1998)\u000a\u000a61. Avraham, Y. et al. Very low doses of 8-THC increase food consumption and alter neurotransmitter levels following weight loss . Pharmacol. Biochem. Behav. 77, 675684 (2004)\u000a\u000a62. Jentsch, J., Andrusiak, E., Tran, A., Bowers, Jr. & Roth, R. 9-Tetrahydrocannabinol increases prefrontal cortical catecholaminergic utilization and impairs spatial working memory in the rat: Blockade of dopaminergic effects with HA966 . Neuropsychopharmacology 16, 426432 (1997)\u000a\u000a63. Ginovart, N. et al. Chronic 9-tetrahydrocannabinol exposure induces a sensitization of dopamine D 2 / 3 receptors in the mesoaccumbens and nigrostriatal systems . Neuropsychopharmacology 37, 23552367 (2012)\u000a\u000a64. Tanda, G., Pontieri, F. E. & Di Chiara, G. Cannabinoid and heroin activation of mesolimbic dopamine transmission by a common  1 opioid receptor mechanism . Science 276, 20482050 (1997).THC increased extracellular dopamine concentrations in the nucleus accumbens shell.\u000a\u000a65. Cadoni, C., Valentini, V. & Di Chiara, G. Behavioral sensitization to 9-tetrahydrocannabinol and cross-sensitization with morphine: differential changes in accumbal shell and core dopamine transmission . J. Neurochem. 106, 15861593 (2008)\u000a\u000a66. Cadoni, C., Simola, N., Espa, E., Fenu, S. & Di Chiara, G. Strain dependence of adolescent cannabis influence on heroin reward and mesolimbic dopamine transmission in adult Lewis and Fischer 344 rats . Addict. Biol. 20, 132142 (2015)\u000a\u000a67. Bloomfield, M. A. P. et al. Dopaminergic function in cannabis users and its relationship to cannabis-induced psychotic symptoms . Biol. Psychiatry 75, 470478 (2014).Dopamine synthesis capacity is reduced in long-term human cannabis users.\u000a\u000a68. Volkow, N. D. et al. Decreased dopamine brain reactivity in marijuana abusers is associated with negative emotionality and addiction severity . Proc. Natl Acad. Sci. USA 111, E3149E3156 (2014).Dopamine release is blunted in chronic human cannabis users.\u000a\u000a69. van de Giessen, E. et al. Deficits in striatal dopamine release in cannabis dependence . Mol. Psychiatry http://dx.doi.org/10.1038/mp.2016.21 (2016)\u000a\u000a70. Urban, N. B. L. et al. Dopamine release in chronic cannabis users: a [c-11]raclopride positron emission tomography study . Biol. Psychiatry 71, 677683 (2012)\u000a\u000a71. Mizrahi, R. et al. Dopamine response to psychosocial stress in chronic cannabis users: a PET study with [11C]-(+)-PHNO . Neuropsychopharmacology 38, 673682 (2013)\u000a\u000a72. Wiers, C. E. et al. Cannabis abusers show hypofrontality and blunted brain responses to a stimulant challenge in females but not in males . Neuropsychopharmacology 41, 25962605 (2016)\u000a\u000a73. Leroy, C. et al. Striatal and extrastriatal dopamine transporter in cannabis and tobacco addiction: a high-resolution PET study . Addict. Biol. 17, 981990 (2012)\u000a\u000a74. Zamberletti, E. et al. Gender-dependent behavioral and biochemical effects of adolescent 9-tetrahydrocannabinol in adult maternally deprived rats . Neuroscience 204, 245257 (2012)\u000a\u000a75. Cortright, J. J., Lorrain, D. S., Beeler, J. A., Tang, W. J. & Vezina, P. Previous exposure to 9-tetrahydrocannibinol enhances locomotor responding to but not self-administration of amphetamine . J. Pharmacol. Exp. Ther. 337, 724733 (2011)\u000a\u000a76. Gifford, A., Gardner, E. & Ashby Jr., C. R. The effect of intravenous administration of 9-tetrahydrocannabinol on the activity of A10 dopamine neurons recorded in vivo in anesthetized rats . Neuropsychobiology 36, 9699 (1997)\u000a\u000a77. French, E. D., Dillon, K. & Wu, X. Cannabinoids excite dopamine neurons in the ventral tegmentum and substantia nigra . Neuroreport 8, 649652 (1997)\u000a\u000a78. Wu, X. & French, E. Effects of chronic 9-tetrahydrocannabinol on rat midbrain dopamine neurons: An electrophysiological assessment . Neuropharmacology 39, 391398 (2000)\u000a\u000a79. Diana, M., Melis, M., Muntoni, A. L. & Gessa, G. L. Mesolimbic dopaminergic decline after cannabinoid withdrawal . Proc. Natl Acad. Sci. USA 95, 1026910273 (1998).Chronic THC exposure is associated with reduced dopamine neuron activity in the meso-accumbens.\u000a\u000a80. Albrecht, D. S. et al. Striatal D 2 /D 3 receptor availability is inversely correlated with cannabis consumption in chronic marijuana users . Drug Alcohol Depend. 128, 5257 (2013)\u000a\u000a81. Sevy, S. et al. Cerebral glucose metabolism and D 2 /D 3 receptor availability in young adults with cannabis dependence measured with positron emission tomography . Psychopharmacology (Berl.) 197, 549556 (2008)\u000a\u000a82. Stokes, P. R. A. et al. History of cannabis use is not associated with alterations in striatal dopamine D 2 /D 3 receptor availability . J Psychopharmacol. 26, 144149 (2012)\u000a\u000a83. Spiga, S., Lintas, A., Migliore, M. & Diana, M. Altered architecture and functional consequences of the mesolimbic dopamine system in cannabis dependence . Addict. Biol. 15, 266276 (2010)\u000a\u000a84. Behan, A. et al. Chronic adolescent exposure to 9-tetrahydrocannabinol in COMT mutant mice: Impact on indices of dopaminergic, endocannabinoid and GABAergic pathways . Neuropsychopharmacology 37, 17731783 (2012)\u000a\u000a85. Kolb, B., Gorny, G., Limebeer, C. L. & Parker, L. A. Chronic treatment with 9-tetrahydrocannabinol alters the structure of neurons in the nucleus accumbens shell and medial prefrontal cortex of rats . Synapse 60, 429436 (2006)\u000a\u000a86. Renard, J., Krebs, M. O., Le Pen, G.& Jay, T. M. Long-term consequences of adolescent cannabinoid exposure in adult psychopathology . Front. Neurosci. 8, 361 (2014)\u000a\u000a87. Berghuis, P. et al. Hardwiring the brain: endocannabinoids shape neuronal connectivity . Science 316, 12121216 (2007)\u000a\u000a88. Bonnin, A., de Miguel, R., Hernandez, M. L., Ramos, J. A.& Fernandez-Ruiz, J. J. The prenatal exposure to 9-tetrahydrocannabinol affects the gene expression and the activity of tyrosine hydroxylase during early brain development . Life Sci. 56, 21772184 (1995)\u000a\u000a89. Walters, D. E. & Carr, L. A. Perinatal exposure to cannabinoids alters neurochemical development in rat brain . Pharmacol. Biochem. Behav. 29, 213216 (1988)\u000a\u000a90. DiNieri, J. A. et al. Maternal cannabis use alters ventral striatal dopamine D 2 gene regulation in the offspring . Biol. Psychiatry 70, 763769 (2011).Prenatal cannabis exposure decreases dopamine receptor D 2 messenger RNA expression in the ventral striatum of offspring in humans.\u000a\u000a91. Garcia-Gil, L. et al. Perinatal 9-tetrahydrocannabinol exposure alters the responsiveness of hypothalamic dopaminergic neurons to dopamine-acting drugs in adult rats . Neurotoxicol. Teratol. 19, 477487 (1997)\u000a\u000a92. Mokler, D. J., Robinson, S. E., Johnson, J. H., Hong, J. S. & Rosecrans, J. A. Neonatal administration of 9-tetrahydrocannabinol (THC) alters the neurochemical response to stress in the adult Fischer-344 rat . Neurotoxicol. Teratol. 9, 321327 (1987)\u000a\u000a93. Scherma, M. et al. Adolescent 9-tetrahydrocannabinol exposure alters WIN55,2122 self-administration in adult rats . Neuropsychopharmacology 41, 14161426 (2016)\u000a\u000a94. Bossong, M. G. et al. 9-tetrahydrocannabinol induces dopamine release in the human striatum . Neuropsychopharmacology 34, 759766 (2009).Combined analysis of two previous PET studies showing that acute THC administration causes dopamine release in humans.\u000a\u000a95. Stokes, P., Mehta, M., Curran, H., Breen, G. & Grasby, P. Can recreational doses of THC produce significant dopamine release in the human striatum? Neuroimage 48, 186190 (2009)\u000a\u000a96. Mawlawi, O. et al. Imaging human mesolimbic dopamine transmission with positron emission tomography: I. Accuracy and precision of D 2 receptor parameter measurements in ventral striatum . J. Cereb. Blood Flow Metab. 21, 10341057 (2001)\u000a\u000a97. Do we need an ethics of self-organizing tissue? Nat. Methods 12, 895 (2015)\u000a\u000a98. Lindgren, J. E., Ohlsson, A., Agurell, S., Hollister, L. & Gillespie, H. Clinical effects and plasma levels of 9-tetrahydrocannabinol (9-THC) in heavy and light users of cannabis . Psychopharmacology (Berl.) 74, 208212 (1981)\u000a\u000a99. Hardwick, S. K. L. Home Office Cannabis Potency Study (Home Office, 2008)\u000a\u000a100. Hunault, C. C. et al. Disposition of smoked cannabis with high 9-tetrahydrocannabinol content: a kinetic model . Toxicol. Appl. Pharmacol. 246, 148153 (2010)\u000a\u000a101. Banerjee, S. P., Snyder, S. H. & Mechoulam, R. Cannabinoids: influence on neurotransmitter uptake in rat brain synaptosomes . J. Pharmacol. Exp. Ther. 194, 7481 (1975)\u000a\u000a102. Bloomfield, M. A., Morgan, C. J., Kapur, S., Curran, H. V. & Howes, O. D. The link between dopamine function and apathy in cannabis users: an [18F]-DOPA PET imaging study . Psychopharmacology (Berl.) 231, 22512259 (2014)\u000a\u000a103. von Sydow, K., Lieb, R., Pfister, H., Hofler, M. & Wittchen, H. U. What predicts incident use of cannabis and progression to abuse and dependence? A 4-year prospective examination of risk factors in a community sample of adolescents and young adults . Drug Alcohol Depend. 68, 4964 (2002)\u000a\u000a104. Carlini, E. A., Lindsey, C. J. & Tufik, S. Cannabis, catecholamines, rapid eye movement sleep and aggressive behaviour . Br. J. Pharmacol. 61, 371379 (1977)\u000a\u000a105. MacLean, K. I. & Littleton, J. M. Environmental stress as a factor in the response of rat brain catecholamine metabolism to 8-tetrahydrocannabinol . Eur. J. Pharmacol. 41, 171182 (1977)\u000a\u000a106. Lomax, P. Acute tolerance to the hypothermic effect of marihuana in the rat . Res. Commun. Chem. Pathol. Pharmacol. 2, 159167 (1971)\u000a\u000a107. Andn, N. E. Dopamine turnover in the corpus striatum and the lumbic system after treatment with neuroleptic and anti-acetylcholine drugs . J. Pharm. Pharmacol. 24, 905906 (1972)\u000a\u000a108. Hattendorf, C., Hattendorf, M., Coper, H. & Fernandes, M. Interaction between 9-tetrahydrocannabinol and d-amphetamine . Psychopharmacology (Berl.) 54, 177182 (1977)\u000a\u000a109. Williams, C. M., Rogers, P. J. & Kirkham, T. C. Hyperphagia in pre-fed rats following oral 9-THC . Physiol. Behav. 65, 343346 (1998)\u000a\u000a110. Foltin, R. W., Brady, J. V. & Fischman, M. W. Behavioral analysis of marijuana effects on food intake in humans . Pharmacol. Biochem. Behav. 25, 577582 (1986)\u000a\u000a111. Ungerstedt, U. Adipsia and aphagia after 6-hydroxydopamine induced degeneration of the nigro-striatal dopamine system . Acta Physiol. Scand. Suppl. 367, 95122 (1971)\u000a\u000a112. Verty, A., McGregor, I. & Mallet, P. The dopamine receptor antagonist SCH 23390 attenuates feeding induced by 9-tetrahydrocannabinol . Brain Res. 1020, 188195 (2004)\u000a\u000a113. Koch, M. et al. Hypothalamic POMC neurons promote cannabinoid-induced feeding . Nature 519, 4550 (2015)\u000a\u000a114. Andrews, Z. B. et al. Ghrelin promotes and protects nigrostriatal dopamine function via a UCP2-dependent mitochondrial mechanism . J. Neurosci. 29, 1405714065 (2009)\u000a\u000a115. Fergusson, D. M., Horwood, L. J. & Beautrais, A. L. Cannabis and educational achievement . Addiction 98, 16811692 (2003).Longitudinal birth cohort study indicating that cannabis use in adolescents and early adults is associated with reduced educational achievement.\u000a\u000a116. Hooker, W. D. & Jones, R. T. Increased susceptibility to memory intrusions and the Stroop interference effect during acute marijuana intoxication . Psychopharmacology (Berl.) 91, 2024 (1987)\u000a\u000a117. Ranganathan, M. & DSouza, D. C. The acute effects of cannabinoids on memory in humans: a review . Psychopharmacology (Berl.) 188, 425444 (2006)\u000a\u000a118. McGlothlin, W. H. W. L. The marihuana problem: an overview . Am. J. Psychiatry 125, 126134 (1968)\u000a\u000a119. Levy, R. & Dubois, B. Apathy and the functional anatomy of the prefrontal cortexbasal ganglia circuits . Cereb. Cortex 16, 916928 (2005)\u000a\u000a120. Goldman-Rakic, P. S. Regional and cellular fractionation of working memory . Proc. Natl Acad. Sci. USA 93, 1347313480 (1996)\u000a\u000a121. Sawaguchi, T. & Goldman-Rakic, P. S. D 1 dopamine receptors in prefrontal cortex: involvement in working memory . Science 251, 947950 (1991)\u000a\u000a122. Nava, F., Carta, G. & Gessa, G. Permissive role of dopamine D 2 receptors in the hypothermia induced by 9-tetrahydrocannabinol in rats . Pharmacol. Biochem. Behav. 66, 183187 (2000)\u000a\u000a123. DSouza, D. C. et al. Effects of haloperidol on the behavioral, subjective, cognitive, motor, and neuroendocrine effects of 9-tetrahydrocannabinol in humans . Psychopharmacology (Berl.) 198, 587603 (2008)\u000a\u000a124. Tunbridge, E. M. et al. Genetic moderation of the effects of cannabis: catechol-O-methyltransferase (COMT) affects the impact of 9-tetrahydrocannabinol (THC) on working memory performance but not on the occurrence of psychotic experiences . J. Psychopharmacol. 29, 11461151 (2015)\u000a\u000a125. Paule, M. G. et al. Chronic marijuana smoke exposure in the rhesus monkey. II: Effects on progressive ratio and conditioned position responding . J. Pharmacol. Exp. Ther. 260, 210222 (1992)\u000a\u000a126. Campbell, I. The amotivational syndrome and cannabis use with emphasis on the Canadian scene. Ann. NY Acad. Sci . 282, 3336 (1976)\u000a\u000a127. Howes, O. D. et al. The nature of dopamine dysfunction in schizophrenia and what this means for treatment . Arch. Gen. Psychiatry 69, 776786 (2012)\u000a\u000a128. Voruganti, L. N., Slomka, P., Zabel, P., Mattar, A. & Awad, A. G. Cannabis induced dopamine release: an in-vivo SPECT study . Psychiatry Res. 107, 173177 (2001)\u000a\u000a129. Mizrahi, R. et al. Stress-induced dopamine response in subjects at clinical high risk for schizophrenia with and without concurrent cannabis use . Neuropsychopharmacology 39, 14791489 (2014)\u000a\u000a130. Thompson, J. L. et al. Striatal dopamine release in schizophrenia comorbid with substance dependence . Mol. Psychiatry 18, 909915 (2013)\u000a\u000a131. Leweke, F. M. et al. Anandamide levels in cerebrospinal fluid of first-episode schizophrenic patients: Impact of cannabis use . Schizophr. Res. 94, 2936 (2007)\u000a\u000a132. Leweke, F. M. et al. Cannabidiol enhances anandamide signaling and alleviates psychotic symptoms of schizophrenia . Transl. Psychiatry 2, e94 (2012)\u000a\u000a133. Kearn, C. S., Blake-Palmer, K., Daniel, E., Mackie, K. & Glass, M. Concurrent stimulation of cannabinoid CB 1 and dopamine D 2 receptors enhances heterodimer formation: a mechanism for receptor cross-talk? Mol. Pharmacol. 67, 16971704 (2005)\u000a\u000a134. Di Forti, M. et al. Confirmation that the AKT1 (rs2494732) genotype influences the risk of psychosis in cannabis users . Biol. Psychiatry 72, 811816 (2012)\u000a\u000a135. Parsons, L. H. & Hurd, Y. L. Endocannabinoid signalling in reward and addiction . Nat. Rev. Neuroci. 16, 579594 (2015).Impaired endocannabinoid signalling dysregulates synaptic plasticity and increases stress responsivity, negative emotional states and cravings that propel addiction.\u000a\u000a136. Lecca, S., Melis, M., Luchicchi, A., Muntoni, A. L. & Pistis, M. Inhibitory inputs from rostromedial tegmental neurons regulate spontaneous activity of midbrain dopamine cells and their responses to drugs of abuse . Neuropsychopharmacology 37, 11641176 (2012)
p552
sS'num_comments'
p553
I84
sS'is_self'
p554
I00
sS'visited'
p555
I00
sS'num_reports'
p556
NsS'is_video'
p557
I00
sS'distinguished'
p558
Nsg27
I00
sb.